; Listing generated by Microsoft (R) Optimizing Compiler Version 19.23.28105.4 

include listing.inc

INCLUDELIB LIBCMTD
INCLUDELIB OLDNAMES

CONST	SEGMENT
$SG204954 DB	'invalid argument', 00H
	ORG $+3
$SG204955 DB	'%s', 00H
	ORG $+1
$SG204959 DB	'"', 00H, 'i', 00H, 'n', 00H, 'v', 00H, 'a', 00H, 'l', 00H
	DB	'i', 00H, 'd', 00H, ' ', 00H, 'a', 00H, 'r', 00H, 'g', 00H, 'u'
	DB	00H, 'm', 00H, 'e', 00H, 'n', 00H, 't', 00H, '"', 00H, 00H, 00H
	ORG $+2
$SG204956 DB	'C:\Program Files (x86)\Microsoft Visual Studio\2019\Comm'
	DB	'unity\VC\Tools\MSVC\14.23.28105\include\xmemory', 00H
$SG198288 DB	'F:\QT_SW\5.12.4\MSVC2017_64\include\QtCore\qvector.h', 00H
	ORG $+3
$SG204957 DB	'C', 00H, ':', 00H, '\', 00H, 'P', 00H, 'r', 00H, 'o', 00H
	DB	'g', 00H, 'r', 00H, 'a', 00H, 'm', 00H, ' ', 00H, 'F', 00H, 'i'
	DB	00H, 'l', 00H, 'e', 00H, 's', 00H, ' ', 00H, '(', 00H, 'x', 00H
	DB	'8', 00H, '6', 00H, ')', 00H, '\', 00H, 'M', 00H, 'i', 00H, 'c'
	DB	00H, 'r', 00H, 'o', 00H, 's', 00H, 'o', 00H, 'f', 00H, 't', 00H
	DB	' ', 00H, 'V', 00H, 'i', 00H, 's', 00H, 'u', 00H, 'a', 00H, 'l'
	DB	00H, ' ', 00H, 'S', 00H, 't', 00H, 'u', 00H, 'd', 00H, 'i', 00H
	DB	'o', 00H, '\', 00H, '2', 00H, '0', 00H, '1', 00H, '9', 00H, '\'
	DB	00H, 'C', 00H, 'o', 00H, 'm', 00H, 'm', 00H, 'u', 00H, 'n', 00H
	DB	'i', 00H, 't', 00H, 'y', 00H, '\', 00H, 'V', 00H, 'C', 00H, '\'
	DB	00H, 'T', 00H, 'o', 00H, 'o', 00H, 'l', 00H, 's', 00H, '\', 00H
	DB	'M', 00H, 'S', 00H, 'V', 00H, 'C', 00H, '\', 00H, '1', 00H, '4'
	DB	00H, '.', 00H, '2', 00H, '3', 00H, '.', 00H, '2', 00H, '8', 00H
	DB	'1', 00H, '0', 00H, '5', 00H, '\', 00H, 'i', 00H, 'n', 00H, 'c'
	DB	00H, 'l', 00H, 'u', 00H, 'd', 00H, 'e', 00H, '\', 00H, 'x', 00H
	DB	'm', 00H, 'e', 00H, 'm', 00H, 'o', 00H, 'r', 00H, 'y', 00H, 00H
	DB	00H
$SG204958 DB	's', 00H, 't', 00H, 'd', 00H, ':', 00H, ':', 00H, '_', 00H
	DB	'A', 00H, 'l', 00H, 'l', 00H, 'o', 00H, 'c', 00H, 'a', 00H, 't'
	DB	00H, 'e', 00H, '_', 00H, 'm', 00H, 'a', 00H, 'n', 00H, 'u', 00H
	DB	'a', 00H, 'l', 00H, 'l', 00H, 'y', 00H, '_', 00H, 'v', 00H, 'e'
	DB	00H, 'c', 00H, 't', 00H, 'o', 00H, 'r', 00H, '_', 00H, 'a', 00H
	DB	'l', 00H, 'i', 00H, 'g', 00H, 'n', 00H, 'e', 00H, 'd', 00H, 00H
	DB	00H
	ORG $+2
?qt_meta_stringdata_MainWindow@@3Uqt_meta_stringdata_MainWindow_t@@B DD 0ffffffffH ; qt_meta_stringdata_MainWindow
	DD	0aH
	DD	00H
	ORG $+4
	DQ	00000000000001c8H
	DD	0ffffffffH
	DD	05H
	DD	00H
	ORG $+4
	DQ	00000000000001bbH
	DD	0ffffffffH
	DD	00H
	DD	00H
	ORG $+4
	DQ	00000000000001a9H
	DD	0ffffffffH
	DD	0bH
	DD	00H
	ORG $+4
	DQ	0000000000000192H
	DD	0ffffffffH
	DD	04H
	DD	00H
	ORG $+4
	DQ	0000000000000186H
	DD	0ffffffffH
	DD	0fH
	DD	00H
	ORG $+4
	DQ	0000000000000173H
	DD	0ffffffffH
	DD	08H
	DD	00H
	ORG $+4
	DQ	000000000000016bH
	DD	0ffffffffH
	DD	04H
	DD	00H
	ORG $+4
	DQ	000000000000015cH
	DD	0ffffffffH
	DD	06H
	DD	00H
	ORG $+4
	DQ	0000000000000149H
	DD	0ffffffffH
	DD	01bH
	DD	00H
	ORG $+4
	DQ	0000000000000138H
	DD	0ffffffffH
	DD	012H
	DD	00H
	ORG $+4
	DQ	000000000000013cH
	DD	0ffffffffH
	DD	0aH
	DD	00H
	ORG $+4
	DQ	0000000000000137H
	DD	0ffffffffH
	DD	07H
	DD	00H
	ORG $+4
	DQ	000000000000012aH
	DD	0ffffffffH
	DD	010H
	DD	00H
	ORG $+4
	DQ	000000000000011aH
	DD	0ffffffffH
	DD	04H
	DD	00H
	ORG $+4
	DQ	0000000000000113H
	DD	0ffffffffH
	DD	07H
	DD	00H
	ORG $+4
	DQ	0000000000000100H
	DD	0ffffffffH
	DD	04H
	DD	00H
	ORG $+4
	DQ	00000000000000f0H
	DD	0ffffffffH
	DD	011H
	DD	00H
	ORG $+4
	DQ	00000000000000ddH
	DD	0ffffffffH
	DD	010H
	DD	00H
	ORG $+4
	DQ	00000000000000d7H
	DB	04dH
	DB	061H
	DB	069H
	DB	06eH
	DB	057H
	DB	069H
	DB	06eH
	DB	064H
	DB	06fH
	DB	077H
	DB	00H
	DB	061H
	DB	062H
	DB	06fH
	DB	075H
	DB	074H
	DB	00H
	DB	00H
	DB	064H
	DB	061H
	DB	074H
	DB	061H
	DB	043H
	DB	068H
	DB	061H
	DB	06eH
	DB	067H
	DB	065H
	DB	064H
	DB	00H
	DB	06fH
	DB	070H
	DB	065H
	DB	06eH
	DB	00H
	DB	06fH
	DB	070H
	DB	074H
	DB	069H
	DB	06fH
	DB	06eH
	DB	073H
	DB	041H
	DB	063H
	DB	063H
	DB	065H
	DB	070H
	DB	074H
	DB	065H
	DB	064H
	DB	00H
	DB	066H
	DB	069H
	DB	06eH
	DB	064H
	DB	04eH
	DB	065H
	DB	078H
	DB	074H
	DB	00H
	DB	073H
	DB	061H
	DB	076H
	DB	065H
	DB	00H
	DB	073H
	DB	061H
	DB	076H
	DB	065H
	DB	041H
	DB	073H
	DB	00H
	DB	073H
	DB	061H
	DB	076H
	DB	065H
	DB	053H
	DB	065H
	DB	06cH
	DB	065H
	DB	063H
	DB	074H
	DB	069H
	DB	06fH
	DB	06eH
	DB	054H
	DB	06fH
	DB	052H
	DB	065H
	DB	061H
	DB	064H
	DB	061H
	DB	062H
	DB	06cH
	DB	065H
	DB	046H
	DB	069H
	DB	06cH
	DB	065H
	DB	00H
	DB	073H
	DB	061H
	DB	076H
	DB	065H
	DB	054H
	DB	06fH
	DB	052H
	DB	065H
	DB	061H
	DB	064H
	DB	061H
	DB	062H
	DB	06cH
	DB	065H
	DB	046H
	DB	069H
	DB	06cH
	DB	065H
	DB	00H
	DB	073H
	DB	065H
	DB	074H
	DB	041H
	DB	064H
	DB	064H
	DB	072H
	DB	065H
	DB	073H
	DB	073H
	DB	00H
	DB	061H
	DB	064H
	DB	064H
	DB	072H
	DB	065H
	DB	073H
	DB	073H
	DB	00H
	DB	073H
	DB	065H
	DB	074H
	DB	04fH
	DB	076H
	DB	065H
	DB	072H
	DB	077H
	DB	072H
	DB	069H
	DB	074H
	DB	065H
	DB	04dH
	DB	06fH
	DB	064H
	DB	065H
	DB	00H
	DB	06dH
	DB	06fH
	DB	064H
	DB	065H
	DB	00H
	DB	073H
	DB	065H
	DB	074H
	DB	053H
	DB	069H
	DB	07aH
	DB	065H
	DB	00H
	DB	073H
	DB	069H
	DB	07aH
	DB	065H
	DB	00H
	DB	073H
	DB	068H
	DB	06fH
	DB	077H
	DB	04fH
	DB	070H
	DB	074H
	DB	069H
	DB	06fH
	DB	06eH
	DB	073H
	DB	044H
	DB	069H
	DB	061H
	DB	06cH
	DB	06fH
	DB	067H
	DB	00H
	DB	073H
	DB	068H
	DB	06fH
	DB	077H
	DB	053H
	DB	065H
	DB	061H
	DB	072H
	DB	063H
	DB	068H
	DB	044H
	DB	069H
	DB	061H
	DB	06cH
	DB	06fH
	DB	067H
	DB	00H
$SG198297 DB	'F:\QT_SW\5.12.4\MSVC2017_64\include\QtCore\qvector.h', 00H
	ORG $+3
?qt_meta_data_MainWindow@@3QBIB DD 08H			; qt_meta_data_MainWindow
	DD	00H
	DD	00H
	DD	00H
	DD	0eH
	DD	0eH
	DD	00H
	DD	00H
	DD	00H
	DD	00H
	DD	00H
	DD	00H
	DD	00H
	DD	00H
	DD	01H
	DD	00H
	DD	054H
	DD	02H
	DD	08H
	DD	03H
	DD	00H
	DD	055H
	DD	02H
	DD	08H
	DD	04H
	DD	00H
	DD	056H
	DD	02H
	DD	08H
	DD	05H
	DD	00H
	DD	057H
	DD	02H
	DD	08H
	DD	06H
	DD	00H
	DD	058H
	DD	02H
	DD	08H
	DD	07H
	DD	00H
	DD	059H
	DD	02H
	DD	08H
	DD	08H
	DD	00H
	DD	05aH
	DD	02H
	DD	08H
	DD	09H
	DD	00H
	DD	05bH
	DD	02H
	DD	08H
	DD	0aH
	DD	00H
	DD	05cH
	DD	02H
	DD	08H
	DD	0bH
	DD	01H
	DD	05dH
	DD	02H
	DD	08H
	DD	0dH
	DD	01H
	DD	060H
	DD	02H
	DD	08H
	DD	0fH
	DD	01H
	DD	063H
	DD	02H
	DD	08H
	DD	011H
	DD	00H
	DD	066H
	DD	02H
	DD	08H
	DD	012H
	DD	00H
	DD	067H
	DD	02H
	DD	08H
	DD	02bH
	DD	02bH
	DD	02bH
	DD	02bH
	DD	02bH
	DD	01H
	DD	01H
	DD	02bH
	DD	02bH
	DD	02bH
	DD	04H
	DD	0cH
	DD	02bH
	DD	01H
	DD	0eH
	DD	02bH
	DD	04H
	DD	010H
	DD	02bH
	DD	02bH
	DD	00H
$SG194455 DB	'%s', 00H
	ORG $+1
$SG198289 DB	'asize >= 0 && asize <= aalloc', 00H
	ORG $+2
$SG198299 DB	'F:\QT_SW\5.12.4\MSVC2017_64\include\QtCore\qvector.h', 00H
	ORG $+3
$SG198298 DB	'x->ref.isSharable() || options.testFlag(QArrayData::Unsh'
	DB	'arable)', 00H
$SG198300 DB	'!x->ref.isStatic()', 00H
	ORG $+5
$SG198313 DB	'F:\QT_SW\5.12.4\MSVC2017_64\include\QtCore\qvector.h', 00H
	ORG $+3
$SG198314 DB	'int(d->alloc) == aalloc', 00H
$SG198315 DB	'F:\QT_SW\5.12.4\MSVC2017_64\include\QtCore\qvector.h', 00H
	ORG $+3
$SG198316 DB	'isDetached()', 00H
	ORG $+3
$SG198317 DB	'F:\QT_SW\5.12.4\MSVC2017_64\include\QtCore\qvector.h', 00H
	ORG $+3
$SG198318 DB	'x == d', 00H
	ORG $+1
$SG198326 DB	'F:\QT_SW\5.12.4\MSVC2017_64\include\QtCore\qvector.h', 00H
	ORG $+3
$SG198327 DB	'd->data()', 00H
	ORG $+6
$SG198328 DB	'F:\QT_SW\5.12.4\MSVC2017_64\include\QtCore\qvector.h', 00H
	ORG $+3
$SG198329 DB	'uint(d->size) <= d->alloc', 00H
	ORG $+6
$SG198330 DB	'F:\QT_SW\5.12.4\MSVC2017_64\include\QtCore\qvector.h', 00H
	ORG $+3
$SG198331 DB	'd != Data::unsharableEmpty()', 00H
	ORG $+3
$SG198332 DB	'F:\QT_SW\5.12.4\MSVC2017_64\include\QtCore\qvector.h', 00H
	ORG $+3
$SG198333 DB	'aalloc ? d != Data::sharedNull() : d == Data::sharedNull'
	DB	'()', 00H
	ORG $+5
$SG198334 DB	'F:\QT_SW\5.12.4\MSVC2017_64\include\QtCore\qvector.h', 00H
	ORG $+3
$SG198335 DB	'd->alloc >= uint(aalloc)', 00H
	ORG $+7
$SG198336 DB	'F:\QT_SW\5.12.4\MSVC2017_64\include\QtCore\qvector.h', 00H
	ORG $+3
$SG198337 DB	'd->size == asize', 00H
	ORG $+7
$SG199151 DB	'F:\QT_SW\5.12.4\MSVC2017_64\include\QtCore\qmetatype.h', 00H
	ORG $+1
$SG199152 DB	'qRegisterNormalizedMetaType was called with a not normal'
	DB	'ized type name, please call qRegisterMetaType instead.', 00H
	ORG $+1
$SG199153 DB	'qRegisterNormalizedMetaType', 00H
	ORG $+4
$SG199478 DB	'F:\QT_SW\5.12.4\MSVC2017_64\include\QtCore\qmetatype.h', 00H
	ORG $+9
$SG199479 DB	'qRegisterNormalizedMetaType was called with a not normal'
	DB	'ized type name, please call qRegisterMetaType instead.', 00H
	ORG $+1
$SG199480 DB	'qRegisterNormalizedMetaType', 00H
	ORG $+4
$SG199805 DB	'F:\QT_SW\5.12.4\MSVC2017_64\include\QtCore\qmetatype.h', 00H
	ORG $+9
$SG199806 DB	'qRegisterNormalizedMetaType was called with a not normal'
	DB	'ized type name, please call qRegisterMetaType instead.', 00H
	ORG $+1
$SG199807 DB	'qRegisterNormalizedMetaType', 00H
	ORG $+4
$SG200621 DB	'F:\QT_SW\5.12.4\MSVC2017_64\include\QtCore\qmetatype.h', 00H
	ORG $+9
$SG200622 DB	'qRegisterNormalizedMetaType was called with a not normal'
	DB	'ized type name, please call qRegisterMetaType instead.', 00H
	ORG $+1
$SG200623 DB	'qRegisterNormalizedMetaType', 00H
	ORG $+4
$SG200948 DB	'F:\QT_SW\5.12.4\MSVC2017_64\include\QtCore\qmetatype.h', 00H
	ORG $+9
$SG200949 DB	'qRegisterNormalizedMetaType was called with a not normal'
	DB	'ized type name, please call qRegisterMetaType instead.', 00H
	ORG $+1
$SG200950 DB	'qRegisterNormalizedMetaType', 00H
	ORG $+4
$SG201275 DB	'F:\QT_SW\5.12.4\MSVC2017_64\include\QtCore\qmetatype.h', 00H
	ORG $+9
$SG201276 DB	'qRegisterNormalizedMetaType was called with a not normal'
	DB	'ized type name, please call qRegisterMetaType instead.', 00H
	ORG $+1
$SG201277 DB	'qRegisterNormalizedMetaType', 00H
	ORG $+4
$SG201641 DB	'F:\QT_SW\5.12.4\MSVC2017_64\include\QtCore\qmetatype.h', 00H
	ORG $+9
$SG201642 DB	'qRegisterNormalizedMetaType was called with a not normal'
	DB	'ized type name, please call qRegisterMetaType instead.', 00H
	ORG $+1
$SG201643 DB	'qRegisterNormalizedMetaType', 00H
	ORG $+4
$SG201968 DB	'F:\QT_SW\5.12.4\MSVC2017_64\include\QtCore\qmetatype.h', 00H
	ORG $+9
$SG201969 DB	'qRegisterNormalizedMetaType was called with a not normal'
	DB	'ized type name, please call qRegisterMetaType instead.', 00H
	ORG $+1
$SG201970 DB	'qRegisterNormalizedMetaType', 00H
	ORG $+4
$SG202295 DB	'F:\QT_SW\5.12.4\MSVC2017_64\include\QtCore\qmetatype.h', 00H
	ORG $+9
$SG202296 DB	'qRegisterNormalizedMetaType was called with a not normal'
	DB	'ized type name, please call qRegisterMetaType instead.', 00H
	ORG $+1
$SG202297 DB	'qRegisterNormalizedMetaType', 00H
	ORG $+4
$SG202622 DB	'F:\QT_SW\5.12.4\MSVC2017_64\include\QtCore\qmetatype.h', 00H
	ORG $+9
$SG202623 DB	'qRegisterNormalizedMetaType was called with a not normal'
	DB	'ized type name, please call qRegisterMetaType instead.', 00H
	ORG $+1
$SG202624 DB	'qRegisterNormalizedMetaType', 00H
	ORG $+4
$SG194454 DB	'containers incompatible for swap', 00H
	ORG $+15
$SG194456 DB	'C:\Program Files (x86)\Microsoft Visual Studio\2019\Comm'
	DB	'unity\VC\Tools\MSVC\14.23.28105\include\xmemory', 00H
	ORG $+8
$SG194457 DB	'C', 00H, ':', 00H, '\', 00H, 'P', 00H, 'r', 00H, 'o', 00H
	DB	'g', 00H, 'r', 00H, 'a', 00H, 'm', 00H, ' ', 00H, 'F', 00H, 'i'
	DB	00H, 'l', 00H, 'e', 00H, 's', 00H, ' ', 00H, '(', 00H, 'x', 00H
	DB	'8', 00H, '6', 00H, ')', 00H, '\', 00H, 'M', 00H, 'i', 00H, 'c'
	DB	00H, 'r', 00H, 'o', 00H, 's', 00H, 'o', 00H, 'f', 00H, 't', 00H
	DB	' ', 00H, 'V', 00H, 'i', 00H, 's', 00H, 'u', 00H, 'a', 00H, 'l'
	DB	00H, ' ', 00H, 'S', 00H, 't', 00H, 'u', 00H, 'd', 00H, 'i', 00H
	DB	'o', 00H, '\', 00H, '2', 00H, '0', 00H, '1', 00H, '9', 00H, '\'
	DB	00H, 'C', 00H, 'o', 00H, 'm', 00H, 'm', 00H, 'u', 00H, 'n', 00H
	DB	'i', 00H, 't', 00H, 'y', 00H, '\', 00H, 'V', 00H, 'C', 00H, '\'
	DB	00H, 'T', 00H, 'o', 00H, 'o', 00H, 'l', 00H, 's', 00H, '\', 00H
	DB	'M', 00H, 'S', 00H, 'V', 00H, 'C', 00H, '\', 00H, '1', 00H, '4'
	DB	00H, '.', 00H, '2', 00H, '3', 00H, '.', 00H, '2', 00H, '8', 00H
	DB	'1', 00H, '0', 00H, '5', 00H, '\', 00H, 'i', 00H, 'n', 00H, 'c'
	DB	00H, 'l', 00H, 'u', 00H, 'd', 00H, 'e', 00H, '\', 00H, 'x', 00H
	DB	'm', 00H, 'e', 00H, 'm', 00H, 'o', 00H, 'r', 00H, 'y', 00H, 00H
	DB	00H
$SG194458 DB	's', 00H, 't', 00H, 'd', 00H, ':', 00H, ':', 00H, '_', 00H
	DB	'P', 00H, 'o', 00H, 'c', 00H, 's', 00H, 00H, 00H
	ORG $+10
$SG194459 DB	'"', 00H, 'c', 00H, 'o', 00H, 'n', 00H, 't', 00H, 'a', 00H
	DB	'i', 00H, 'n', 00H, 'e', 00H, 'r', 00H, 's', 00H, ' ', 00H, 'i'
	DB	00H, 'n', 00H, 'c', 00H, 'o', 00H, 'm', 00H, 'p', 00H, 'a', 00H
	DB	't', 00H, 'i', 00H, 'b', 00H, 'l', 00H, 'e', 00H, ' ', 00H, 'f'
	DB	00H, 'o', 00H, 'r', 00H, ' ', 00H, 's', 00H, 'w', 00H, 'a', 00H
	DB	'p', 00H, '"', 00H, 00H, 00H
	ORG $+2
$SG202974 DB	'F:\QT_SW\5.12.4\MSVC2017_64\include\QtCore\qmetatype.h', 00H
	ORG $+1
$SG202975 DB	'qRegisterNormalizedMetaType was called with a not normal'
	DB	'ized type name, please call qRegisterMetaType instead.', 00H
	ORG $+1
$SG202976 DB	'qRegisterNormalizedMetaType', 00H
	ORG $+4
$SG203301 DB	'F:\QT_SW\5.12.4\MSVC2017_64\include\QtCore\qmetatype.h', 00H
	ORG $+9
$SG203302 DB	'qRegisterNormalizedMetaType was called with a not normal'
	DB	'ized type name, please call qRegisterMetaType instead.', 00H
	ORG $+1
$SG203303 DB	'qRegisterNormalizedMetaType', 00H
	ORG $+4
$SG195242 DB	'F:\QT_SW\5.12.4\MSVC2017_64\include\QtCore\qmetatype.h', 00H
	ORG $+9
$SG195243 DB	'qRegisterNormalizedMetaType was called with a not normal'
	DB	'ized type name, please call qRegisterMetaType instead.', 00H
	ORG $+1
$SG195244 DB	'qRegisterNormalizedMetaType', 00H
CONST	ENDS
PUBLIC	?__empty_global_delete@@YAXPEAX@Z		; __empty_global_delete
PUBLIC	?__empty_global_delete@@YAXPEAX_K@Z		; __empty_global_delete
PUBLIC	??C?$QScopedPointer@VQObjectData@@U?$QScopedPointerDeleter@VQObjectData@@@@@@QEBAPEAVQObjectData@@XZ ; QScopedPointer<QObjectData,QScopedPointerDeleter<QObjectData> >::operator->
PUBLIC	?tr@QHexEdit@@SA?AVQString@@PEBD0H@Z		; QHexEdit::tr
PUBLIC	?trUtf8@QHexEdit@@SA?AVQString@@PEBD0H@Z	; QHexEdit::trUtf8
PUBLIC	??_FQHexEdit@@QEAAXXZ				; QHexEdit::`default constructor closure'
PUBLIC	?metaObject@MainWindow@@UEBAPEBUQMetaObject@@XZ	; MainWindow::metaObject
PUBLIC	?qt_metacast@MainWindow@@UEAAPEAXPEBD@Z		; MainWindow::qt_metacast
PUBLIC	?qt_metacall@MainWindow@@UEAAHW4Call@QMetaObject@@HPEAPEAX@Z ; MainWindow::qt_metacall
PUBLIC	?qt_static_metacall@MainWindow@@CAXPEAVQObject@@W4Call@QMetaObject@@HPEAPEAX@Z ; MainWindow::qt_static_metacall
PUBLIC	??$move@AEA_N@std@@YA$$QEA_NAEA_N@Z		; std::move<bool &>
PUBLIC	?staticMetaObject@MainWindow@@2UQMetaObject@@B	; MainWindow::staticMetaObject
EXTRN	strcmp:PROC
EXTRN	__imp_?tr@QMetaObject@@QEBA?AVQString@@PEBD0H@Z:PROC
EXTRN	__imp_?dynamicMetaObject@QObjectData@@QEBAPEAUQMetaObject@@XZ:PROC
EXTRN	__imp_?qt_metacast@QMainWindow@@UEAAPEAXPEBD@Z:PROC
EXTRN	__imp_?qt_metacall@QMainWindow@@UEAAHW4Call@QMetaObject@@HPEAPEAX@Z:PROC
EXTRN	??0QHexEdit@@QEAA@PEAVQWidget@@@Z:PROC		; QHexEdit::QHexEdit
EXTRN	?about@MainWindow@@AEAAXXZ:PROC			; MainWindow::about
EXTRN	?dataChanged@MainWindow@@AEAAXXZ:PROC		; MainWindow::dataChanged
EXTRN	?open@MainWindow@@AEAAXXZ:PROC			; MainWindow::open
EXTRN	?optionsAccepted@MainWindow@@AEAAXXZ:PROC	; MainWindow::optionsAccepted
EXTRN	?findNext@MainWindow@@AEAAXXZ:PROC		; MainWindow::findNext
EXTRN	?save@MainWindow@@AEAA_NXZ:PROC			; MainWindow::save
EXTRN	?saveAs@MainWindow@@AEAA_NXZ:PROC		; MainWindow::saveAs
EXTRN	?saveSelectionToReadableFile@MainWindow@@AEAAXXZ:PROC ; MainWindow::saveSelectionToReadableFile
EXTRN	?saveToReadableFile@MainWindow@@AEAAXXZ:PROC	; MainWindow::saveToReadableFile
EXTRN	?setAddress@MainWindow@@AEAAX_J@Z:PROC		; MainWindow::setAddress
EXTRN	?setOverwriteMode@MainWindow@@AEAAX_N@Z:PROC	; MainWindow::setOverwriteMode
EXTRN	?setSize@MainWindow@@AEAAX_J@Z:PROC		; MainWindow::setSize
EXTRN	?showOptionsDialog@MainWindow@@AEAAXXZ:PROC	; MainWindow::showOptionsDialog
EXTRN	?showSearchDialog@MainWindow@@AEAAXXZ:PROC	; MainWindow::showSearchDialog
EXTRN	__imp_?staticMetaObject@QMainWindow@@2UQMetaObject@@B:BYTE
EXTRN	?staticMetaObject@QHexEdit@@2UQMetaObject@@B:BYTE ; QHexEdit::staticMetaObject
EXTRN	__ImageBase:BYTE
_BSS	SEGMENT
?staticMetaObject@MainWindow@@2UQMetaObject@@B DB 030H DUP (?) ; MainWindow::staticMetaObject
_BSS	ENDS
;	COMDAT pdata
pdata	SEGMENT
$pdata$?tr@QHexEdit@@SA?AVQString@@PEBD0H@Z DD imagerel $LN5
	DD	imagerel $LN5+89
	DD	imagerel $unwind$?tr@QHexEdit@@SA?AVQString@@PEBD0H@Z
pdata	ENDS
;	COMDAT pdata
pdata	SEGMENT
$pdata$?trUtf8@QHexEdit@@SA?AVQString@@PEBD0H@Z DD imagerel $LN5
	DD	imagerel $LN5+89
	DD	imagerel $unwind$?trUtf8@QHexEdit@@SA?AVQString@@PEBD0H@Z
pdata	ENDS
;	COMDAT pdata
pdata	SEGMENT
$pdata$??_FQHexEdit@@QEAAXXZ DD imagerel $LN3
	DD	imagerel $LN3+26
	DD	imagerel $unwind$??_FQHexEdit@@QEAAXXZ
pdata	ENDS
pdata	SEGMENT
$pdata$?metaObject@MainWindow@@UEBAPEBUQMetaObject@@XZ DD imagerel $LN5
	DD	imagerel $LN5+88
	DD	imagerel $unwind$?metaObject@MainWindow@@UEBAPEBUQMetaObject@@XZ
$pdata$?qt_metacast@MainWindow@@UEAAPEAXPEBD@Z DD imagerel $LN5
	DD	imagerel $LN5+75
	DD	imagerel $unwind$?qt_metacast@MainWindow@@UEAAPEAXPEBD@Z
$pdata$?qt_metacall@MainWindow@@UEAAHW4Call@QMetaObject@@HPEAPEAX@Z DD imagerel $LN9
	DD	imagerel $LN9+174
	DD	imagerel $unwind$?qt_metacall@MainWindow@@UEAAHW4Call@QMetaObject@@HPEAPEAX@Z
$pdata$?qt_static_metacall@MainWindow@@CAXPEAVQObject@@W4Call@QMetaObject@@HPEAPEAX@Z DD imagerel $LN24
	DD	imagerel $LN24+520
	DD	imagerel $unwind$?qt_static_metacall@MainWindow@@CAXPEAVQObject@@W4Call@QMetaObject@@HPEAPEAX@Z
pdata	ENDS
CRT$XCU	SEGMENT
??staticMetaObject$initializer$@MainWindow@@2P6AXXZEA@@3P6AXXZEA DQ FLAT:??__E?staticMetaObject@MainWindow@@2UQMetaObject@@B@@YAXXZ ; ??staticMetaObject$initializer$@MainWindow@@2P6AXXZEA@@3P6AXXZEA
CRT$XCU	ENDS
xdata	SEGMENT
$unwind$?metaObject@MainWindow@@UEBAPEBUQMetaObject@@XZ DD 010901H
	DD	06209H
$unwind$?qt_metacast@MainWindow@@UEAAPEAXPEBD@Z DD 010e01H
	DD	0420eH
$unwind$?qt_metacall@MainWindow@@UEAAHW4Call@QMetaObject@@HPEAPEAX@Z DD 011701H
	DD	04217H
$unwind$?qt_static_metacall@MainWindow@@CAXPEAVQObject@@W4Call@QMetaObject@@HPEAPEAX@Z DD 011701H
	DD	06217H
xdata	ENDS
;	COMDAT xdata
xdata	SEGMENT
$unwind$??_FQHexEdit@@QEAAXXZ DD 010901H
	DD	04209H
xdata	ENDS
;	COMDAT xdata
xdata	SEGMENT
$unwind$?trUtf8@QHexEdit@@SA?AVQString@@PEBD0H@Z DD 011801H
	DD	08218H
xdata	ENDS
;	COMDAT xdata
xdata	SEGMENT
$unwind$?tr@QHexEdit@@SA?AVQString@@PEBD0H@Z DD 011801H
	DD	08218H
xdata	ENDS
; Function compile flags: /Odtp
;	COMDAT ??__E?staticMetaObject@MainWindow@@2UQMetaObject@@B@@YAXXZ
text$di	SEGMENT
??__E?staticMetaObject@MainWindow@@2UQMetaObject@@B@@YAXXZ PROC ; `dynamic initializer for 'MainWindow::staticMetaObject'', COMDAT
; File F:\qt_projects\qhexedit2-master\example\Debug\moc_mainwindow.cpp
; Line 140
	mov	rax, QWORD PTR __imp_?staticMetaObject@QMainWindow@@2UQMetaObject@@B
	mov	QWORD PTR ?staticMetaObject@MainWindow@@2UQMetaObject@@B, rax
; Line 141
	lea	rax, OFFSET FLAT:?qt_meta_stringdata_MainWindow@@3Uqt_meta_stringdata_MainWindow_t@@B
	mov	QWORD PTR ?staticMetaObject@MainWindow@@2UQMetaObject@@B+8, rax
; Line 142
	lea	rax, OFFSET FLAT:?qt_meta_data_MainWindow@@3QBIB
	mov	QWORD PTR ?staticMetaObject@MainWindow@@2UQMetaObject@@B+16, rax
; Line 143
	lea	rax, OFFSET FLAT:?qt_static_metacall@MainWindow@@CAXPEAVQObject@@W4Call@QMetaObject@@HPEAPEAX@Z ; MainWindow::qt_static_metacall
	mov	QWORD PTR ?staticMetaObject@MainWindow@@2UQMetaObject@@B+24, rax
; Line 144
	mov	QWORD PTR ?staticMetaObject@MainWindow@@2UQMetaObject@@B+32, 0
; Line 145
	mov	QWORD PTR ?staticMetaObject@MainWindow@@2UQMetaObject@@B+40, 0
	ret	0
??__E?staticMetaObject@MainWindow@@2UQMetaObject@@B@@YAXXZ ENDP ; `dynamic initializer for 'MainWindow::staticMetaObject''
text$di	ENDS
; Function compile flags: /Odtp
;	COMDAT ??$move@AEA_N@std@@YA$$QEA_NAEA_N@Z
_TEXT	SEGMENT
_Arg$ = 8
??$move@AEA_N@std@@YA$$QEA_NAEA_N@Z PROC		; std::move<bool &>, COMDAT
; File C:\Program Files (x86)\Microsoft Visual Studio\2019\Community\VC\Tools\MSVC\14.23.28105\include\type_traits
; Line 1432
	mov	QWORD PTR [rsp+8], rcx
; Line 1433
	mov	rax, QWORD PTR _Arg$[rsp]
; Line 1434
	ret	0
??$move@AEA_N@std@@YA$$QEA_NAEA_N@Z ENDP		; std::move<bool &>
_TEXT	ENDS
; Function compile flags: /Odtp
_TEXT	SEGMENT
_r$1 = 32
_r$2 = 33
tv69 = 36
_t$3 = 40
_o$ = 64
_c$ = 72
_id$ = 80
_a$ = 88
?qt_static_metacall@MainWindow@@CAXPEAVQObject@@W4Call@QMetaObject@@HPEAPEAX@Z PROC ; MainWindow::qt_static_metacall
; File F:\qt_projects\qhexedit2-master\example\Debug\moc_mainwindow.cpp
; Line 113
$LN24:
	mov	QWORD PTR [rsp+32], r9
	mov	DWORD PTR [rsp+24], r8d
	mov	DWORD PTR [rsp+16], edx
	mov	QWORD PTR [rsp+8], rcx
	sub	rsp, 56					; 00000038H
; Line 114
	cmp	DWORD PTR _c$[rsp], 0
	jne	$LN4@qt_static_
; Line 115
	mov	rax, QWORD PTR _o$[rsp]
	mov	QWORD PTR _t$3[rsp], rax
; Line 117
	mov	eax, DWORD PTR _id$[rsp]
	mov	DWORD PTR tv69[rsp], eax
	cmp	DWORD PTR tv69[rsp], 13
	ja	$LN21@qt_static_
	movsxd	rax, DWORD PTR tv69[rsp]
	lea	rcx, OFFSET FLAT:__ImageBase
	mov	eax, DWORD PTR $LN23@qt_static_[rcx+rax*4]
	add	rax, rcx
	jmp	rax
$LN5@qt_static_:
; Line 118
	mov	rcx, QWORD PTR _t$3[rsp]
	call	?about@MainWindow@@AEAAXXZ		; MainWindow::about
	jmp	$LN2@qt_static_
$LN6@qt_static_:
; Line 119
	mov	rcx, QWORD PTR _t$3[rsp]
	call	?dataChanged@MainWindow@@AEAAXXZ	; MainWindow::dataChanged
	jmp	$LN2@qt_static_
$LN7@qt_static_:
; Line 120
	mov	rcx, QWORD PTR _t$3[rsp]
	call	?open@MainWindow@@AEAAXXZ		; MainWindow::open
	jmp	$LN2@qt_static_
$LN8@qt_static_:
; Line 121
	mov	rcx, QWORD PTR _t$3[rsp]
	call	?optionsAccepted@MainWindow@@AEAAXXZ	; MainWindow::optionsAccepted
	jmp	$LN2@qt_static_
$LN9@qt_static_:
; Line 122
	mov	rcx, QWORD PTR _t$3[rsp]
	call	?findNext@MainWindow@@AEAAXXZ		; MainWindow::findNext
	jmp	$LN2@qt_static_
$LN10@qt_static_:
; Line 123
	mov	rcx, QWORD PTR _t$3[rsp]
	call	?save@MainWindow@@AEAA_NXZ		; MainWindow::save
	mov	BYTE PTR _r$1[rsp], al
; Line 124
	mov	eax, 8
	imul	rax, rax, 0
	mov	rcx, QWORD PTR _a$[rsp]
	cmp	QWORD PTR [rcx+rax], 0
	je	SHORT $LN11@qt_static_
	lea	rcx, QWORD PTR _r$1[rsp]
	call	??$move@AEA_N@std@@YA$$QEA_NAEA_N@Z	; std::move<bool &>
	mov	ecx, 8
	imul	rcx, rcx, 0
	mov	rdx, QWORD PTR _a$[rsp]
	mov	rcx, QWORD PTR [rdx+rcx]
	movzx	eax, BYTE PTR [rax]
	mov	BYTE PTR [rcx], al
$LN11@qt_static_:
	jmp	$LN2@qt_static_
$LN12@qt_static_:
; Line 125
	mov	rcx, QWORD PTR _t$3[rsp]
	call	?saveAs@MainWindow@@AEAA_NXZ		; MainWindow::saveAs
	mov	BYTE PTR _r$2[rsp], al
; Line 126
	mov	eax, 8
	imul	rax, rax, 0
	mov	rcx, QWORD PTR _a$[rsp]
	cmp	QWORD PTR [rcx+rax], 0
	je	SHORT $LN13@qt_static_
	lea	rcx, QWORD PTR _r$2[rsp]
	call	??$move@AEA_N@std@@YA$$QEA_NAEA_N@Z	; std::move<bool &>
	mov	ecx, 8
	imul	rcx, rcx, 0
	mov	rdx, QWORD PTR _a$[rsp]
	mov	rcx, QWORD PTR [rdx+rcx]
	movzx	eax, BYTE PTR [rax]
	mov	BYTE PTR [rcx], al
$LN13@qt_static_:
	jmp	$LN2@qt_static_
$LN14@qt_static_:
; Line 127
	mov	rcx, QWORD PTR _t$3[rsp]
	call	?saveSelectionToReadableFile@MainWindow@@AEAAXXZ ; MainWindow::saveSelectionToReadableFile
	jmp	$LN2@qt_static_
$LN15@qt_static_:
; Line 128
	mov	rcx, QWORD PTR _t$3[rsp]
	call	?saveToReadableFile@MainWindow@@AEAAXXZ	; MainWindow::saveToReadableFile
	jmp	SHORT $LN2@qt_static_
$LN16@qt_static_:
; Line 129
	mov	eax, 8
	imul	rax, rax, 1
	mov	rcx, QWORD PTR _a$[rsp]
	mov	rax, QWORD PTR [rcx+rax]
	mov	rdx, QWORD PTR [rax]
	mov	rcx, QWORD PTR _t$3[rsp]
	call	?setAddress@MainWindow@@AEAAX_J@Z	; MainWindow::setAddress
	jmp	SHORT $LN2@qt_static_
$LN17@qt_static_:
; Line 130
	mov	eax, 8
	imul	rax, rax, 1
	mov	rcx, QWORD PTR _a$[rsp]
	mov	rax, QWORD PTR [rcx+rax]
	movzx	edx, BYTE PTR [rax]
	mov	rcx, QWORD PTR _t$3[rsp]
	call	?setOverwriteMode@MainWindow@@AEAAX_N@Z	; MainWindow::setOverwriteMode
	jmp	SHORT $LN2@qt_static_
$LN18@qt_static_:
; Line 131
	mov	eax, 8
	imul	rax, rax, 1
	mov	rcx, QWORD PTR _a$[rsp]
	mov	rax, QWORD PTR [rcx+rax]
	mov	rdx, QWORD PTR [rax]
	mov	rcx, QWORD PTR _t$3[rsp]
	call	?setSize@MainWindow@@AEAAX_J@Z		; MainWindow::setSize
	jmp	SHORT $LN2@qt_static_
$LN19@qt_static_:
; Line 132
	mov	rcx, QWORD PTR _t$3[rsp]
	call	?showOptionsDialog@MainWindow@@AEAAXXZ	; MainWindow::showOptionsDialog
	jmp	SHORT $LN2@qt_static_
$LN20@qt_static_:
; Line 133
	mov	rcx, QWORD PTR _t$3[rsp]
	call	?showSearchDialog@MainWindow@@AEAAXXZ	; MainWindow::showSearchDialog
$LN21@qt_static_:
$LN2@qt_static_:
$LN4@qt_static_:
; Line 137
	add	rsp, 56					; 00000038H
	ret	0
	npad	3
$LN23@qt_static_:
	DD	$LN5@qt_static_
	DD	$LN6@qt_static_
	DD	$LN7@qt_static_
	DD	$LN8@qt_static_
	DD	$LN9@qt_static_
	DD	$LN10@qt_static_
	DD	$LN12@qt_static_
	DD	$LN14@qt_static_
	DD	$LN15@qt_static_
	DD	$LN16@qt_static_
	DD	$LN17@qt_static_
	DD	$LN18@qt_static_
	DD	$LN19@qt_static_
	DD	$LN20@qt_static_
?qt_static_metacall@MainWindow@@CAXPEAVQObject@@W4Call@QMetaObject@@HPEAPEAX@Z ENDP ; MainWindow::qt_static_metacall
_TEXT	ENDS
; Function compile flags: /Odtp
_TEXT	SEGMENT
this$ = 48
_c$ = 56
_id$ = 64
_a$ = 72
?qt_metacall@MainWindow@@UEAAHW4Call@QMetaObject@@HPEAPEAX@Z PROC ; MainWindow::qt_metacall
; File F:\qt_projects\qhexedit2-master\example\Debug\moc_mainwindow.cpp
; Line 163
$LN9:
	mov	QWORD PTR [rsp+32], r9
	mov	DWORD PTR [rsp+24], r8d
	mov	DWORD PTR [rsp+16], edx
	mov	QWORD PTR [rsp+8], rcx
	sub	rsp, 40					; 00000028H
; Line 164
	mov	r9, QWORD PTR _a$[rsp]
	mov	r8d, DWORD PTR _id$[rsp]
	mov	edx, DWORD PTR _c$[rsp]
	mov	rcx, QWORD PTR this$[rsp]
	call	QWORD PTR __imp_?qt_metacall@QMainWindow@@UEAAHW4Call@QMetaObject@@HPEAPEAX@Z
	mov	DWORD PTR _id$[rsp], eax
; Line 165
	cmp	DWORD PTR _id$[rsp], 0
	jge	SHORT $LN2@qt_metacal
; Line 166
	mov	eax, DWORD PTR _id$[rsp]
	jmp	SHORT $LN1@qt_metacal
$LN2@qt_metacal:
; Line 167
	cmp	DWORD PTR _c$[rsp], 0
	jne	SHORT $LN3@qt_metacal
; Line 168
	cmp	DWORD PTR _id$[rsp], 14
	jge	SHORT $LN5@qt_metacal
; Line 169
	mov	r9, QWORD PTR _a$[rsp]
	mov	r8d, DWORD PTR _id$[rsp]
	mov	edx, DWORD PTR _c$[rsp]
	mov	rcx, QWORD PTR this$[rsp]
	call	?qt_static_metacall@MainWindow@@CAXPEAVQObject@@W4Call@QMetaObject@@HPEAPEAX@Z ; MainWindow::qt_static_metacall
$LN5@qt_metacal:
; Line 170
	mov	eax, DWORD PTR _id$[rsp]
	sub	eax, 14
	mov	DWORD PTR _id$[rsp], eax
	jmp	SHORT $LN4@qt_metacal
$LN3@qt_metacal:
; Line 171
	cmp	DWORD PTR _c$[rsp], 12
	jne	SHORT $LN6@qt_metacal
; Line 172
	cmp	DWORD PTR _id$[rsp], 14
	jge	SHORT $LN7@qt_metacal
; Line 173
	mov	eax, 8
	imul	rax, rax, 0
	mov	rcx, QWORD PTR _a$[rsp]
	mov	rax, QWORD PTR [rcx+rax]
	mov	DWORD PTR [rax], -1
$LN7@qt_metacal:
; Line 174
	mov	eax, DWORD PTR _id$[rsp]
	sub	eax, 14
	mov	DWORD PTR _id$[rsp], eax
$LN6@qt_metacal:
$LN4@qt_metacal:
; Line 176
	mov	eax, DWORD PTR _id$[rsp]
$LN1@qt_metacal:
; Line 177
	add	rsp, 40					; 00000028H
	ret	0
?qt_metacall@MainWindow@@UEAAHW4Call@QMetaObject@@HPEAPEAX@Z ENDP ; MainWindow::qt_metacall
_TEXT	ENDS
; Function compile flags: /Odtp
_TEXT	SEGMENT
this$ = 48
_clname$ = 56
?qt_metacast@MainWindow@@UEAAPEAXPEBD@Z PROC		; MainWindow::qt_metacast
; File F:\qt_projects\qhexedit2-master\example\Debug\moc_mainwindow.cpp
; Line 155
$LN5:
	mov	QWORD PTR [rsp+16], rdx
	mov	QWORD PTR [rsp+8], rcx
	sub	rsp, 40					; 00000028H
; Line 156
	cmp	QWORD PTR _clname$[rsp], 0
	jne	SHORT $LN2@qt_metacas
	xor	eax, eax
	jmp	SHORT $LN1@qt_metacas
$LN2@qt_metacas:
; Line 157
	lea	rdx, OFFSET FLAT:?qt_meta_stringdata_MainWindow@@3Uqt_meta_stringdata_MainWindow_t@@B+456
	mov	rcx, QWORD PTR _clname$[rsp]
	call	strcmp
	test	eax, eax
	jne	SHORT $LN3@qt_metacas
; Line 158
	mov	rax, QWORD PTR this$[rsp]
	jmp	SHORT $LN1@qt_metacas
$LN3@qt_metacas:
; Line 159
	mov	rdx, QWORD PTR _clname$[rsp]
	mov	rcx, QWORD PTR this$[rsp]
	call	QWORD PTR __imp_?qt_metacast@QMainWindow@@UEAAPEAXPEBD@Z
$LN1@qt_metacas:
; Line 160
	add	rsp, 40					; 00000028H
	ret	0
?qt_metacast@MainWindow@@UEAAPEAXPEBD@Z ENDP		; MainWindow::qt_metacast
_TEXT	ENDS
; Function compile flags: /Odtp
_TEXT	SEGMENT
tv82 = 32
this$ = 64
?metaObject@MainWindow@@UEBAPEBUQMetaObject@@XZ PROC	; MainWindow::metaObject
; File F:\qt_projects\qhexedit2-master\example\Debug\moc_mainwindow.cpp
; Line 150
$LN5:
	mov	QWORD PTR [rsp+8], rcx
	sub	rsp, 56					; 00000038H
; Line 151
	mov	rax, QWORD PTR this$[rsp]
	add	rax, 8
	mov	rcx, rax
	call	??C?$QScopedPointer@VQObjectData@@U?$QScopedPointerDeleter@VQObjectData@@@@@@QEBAPEAVQObjectData@@XZ ; QScopedPointer<QObjectData,QScopedPointerDeleter<QObjectData> >::operator->
	cmp	QWORD PTR [rax+40], 0
	je	SHORT $LN3@metaObject
	mov	rax, QWORD PTR this$[rsp]
	add	rax, 8
	mov	rcx, rax
	call	??C?$QScopedPointer@VQObjectData@@U?$QScopedPointerDeleter@VQObjectData@@@@@@QEBAPEAVQObjectData@@XZ ; QScopedPointer<QObjectData,QScopedPointerDeleter<QObjectData> >::operator->
	mov	rcx, rax
	call	QWORD PTR __imp_?dynamicMetaObject@QObjectData@@QEBAPEAUQMetaObject@@XZ
	mov	QWORD PTR tv82[rsp], rax
	jmp	SHORT $LN4@metaObject
$LN3@metaObject:
	lea	rax, OFFSET FLAT:?staticMetaObject@MainWindow@@2UQMetaObject@@B ; MainWindow::staticMetaObject
	mov	QWORD PTR tv82[rsp], rax
$LN4@metaObject:
	mov	rax, QWORD PTR tv82[rsp]
; Line 152
	add	rsp, 56					; 00000038H
	ret	0
?metaObject@MainWindow@@UEBAPEBUQMetaObject@@XZ ENDP	; MainWindow::metaObject
_TEXT	ENDS
; Function compile flags: /Odtp
;	COMDAT ??_FQHexEdit@@QEAAXXZ
_TEXT	SEGMENT
this$ = 48
??_FQHexEdit@@QEAAXXZ PROC				; QHexEdit::`default constructor closure', COMDAT
$LN3:
	mov	QWORD PTR [rsp+8], rcx
	sub	rsp, 40					; 00000028H
	xor	edx, edx
	mov	rcx, QWORD PTR this$[rsp]
	call	??0QHexEdit@@QEAA@PEAVQWidget@@@Z	; QHexEdit::QHexEdit
	add	rsp, 40					; 00000028H
	ret	0
??_FQHexEdit@@QEAAXXZ ENDP				; QHexEdit::`default constructor closure'
_TEXT	ENDS
; Function compile flags: /Odtp
;	COMDAT ?trUtf8@QHexEdit@@SA?AVQString@@PEBD0H@Z
_TEXT	SEGMENT
$T1 = 48
__$ReturnUdt$ = 80
s$ = 88
c$ = 96
n$ = 104
?trUtf8@QHexEdit@@SA?AVQString@@PEBD0H@Z PROC		; QHexEdit::trUtf8, COMDAT
; File F:\qt_projects\qhexedit2-master\src\qhexedit.h
; Line 61
$LN5:
	mov	DWORD PTR [rsp+32], r9d
	mov	QWORD PTR [rsp+24], r8
	mov	QWORD PTR [rsp+16], rdx
	mov	QWORD PTR [rsp+8], rcx
	sub	rsp, 72					; 00000048H
	mov	DWORD PTR $T1[rsp], 0
	mov	eax, DWORD PTR n$[rsp]
	mov	DWORD PTR [rsp+32], eax
	mov	r9, QWORD PTR c$[rsp]
	mov	r8, QWORD PTR s$[rsp]
	mov	rdx, QWORD PTR __$ReturnUdt$[rsp]
	lea	rcx, OFFSET FLAT:?staticMetaObject@QHexEdit@@2UQMetaObject@@B ; QHexEdit::staticMetaObject
	call	QWORD PTR __imp_?tr@QMetaObject@@QEBA?AVQString@@PEBD0H@Z
	mov	eax, DWORD PTR $T1[rsp]
	or	eax, 1
	mov	DWORD PTR $T1[rsp], eax
	mov	rax, QWORD PTR __$ReturnUdt$[rsp]
	add	rsp, 72					; 00000048H
	ret	0
?trUtf8@QHexEdit@@SA?AVQString@@PEBD0H@Z ENDP		; QHexEdit::trUtf8
_TEXT	ENDS
; Function compile flags: /Odtp
;	COMDAT ?tr@QHexEdit@@SA?AVQString@@PEBD0H@Z
_TEXT	SEGMENT
$T1 = 48
__$ReturnUdt$ = 80
s$ = 88
c$ = 96
n$ = 104
?tr@QHexEdit@@SA?AVQString@@PEBD0H@Z PROC		; QHexEdit::tr, COMDAT
; File F:\qt_projects\qhexedit2-master\src\qhexedit.h
; Line 61
$LN5:
	mov	DWORD PTR [rsp+32], r9d
	mov	QWORD PTR [rsp+24], r8
	mov	QWORD PTR [rsp+16], rdx
	mov	QWORD PTR [rsp+8], rcx
	sub	rsp, 72					; 00000048H
	mov	DWORD PTR $T1[rsp], 0
	mov	eax, DWORD PTR n$[rsp]
	mov	DWORD PTR [rsp+32], eax
	mov	r9, QWORD PTR c$[rsp]
	mov	r8, QWORD PTR s$[rsp]
	mov	rdx, QWORD PTR __$ReturnUdt$[rsp]
	lea	rcx, OFFSET FLAT:?staticMetaObject@QHexEdit@@2UQMetaObject@@B ; QHexEdit::staticMetaObject
	call	QWORD PTR __imp_?tr@QMetaObject@@QEBA?AVQString@@PEBD0H@Z
	mov	eax, DWORD PTR $T1[rsp]
	or	eax, 1
	mov	DWORD PTR $T1[rsp], eax
	mov	rax, QWORD PTR __$ReturnUdt$[rsp]
	add	rsp, 72					; 00000048H
	ret	0
?tr@QHexEdit@@SA?AVQString@@PEBD0H@Z ENDP		; QHexEdit::tr
_TEXT	ENDS
; Function compile flags: /Odtp
;	COMDAT ??C?$QScopedPointer@VQObjectData@@U?$QScopedPointerDeleter@VQObjectData@@@@@@QEBAPEAVQObjectData@@XZ
_TEXT	SEGMENT
this$ = 8
??C?$QScopedPointer@VQObjectData@@U?$QScopedPointerDeleter@VQObjectData@@@@@@QEBAPEAVQObjectData@@XZ PROC ; QScopedPointer<QObjectData,QScopedPointerDeleter<QObjectData> >::operator->, COMDAT
; File F:\QT_SW\5.12.4\MSVC2017_64\include\QtCore\qscopedpointer.h
; Line 117
	mov	QWORD PTR [rsp+8], rcx
; Line 118
	mov	rax, QWORD PTR this$[rsp]
	mov	rax, QWORD PTR [rax]
; Line 119
	ret	0
??C?$QScopedPointer@VQObjectData@@U?$QScopedPointerDeleter@VQObjectData@@@@@@QEBAPEAVQObjectData@@XZ ENDP ; QScopedPointer<QObjectData,QScopedPointerDeleter<QObjectData> >::operator->
_TEXT	ENDS
; Function compile flags: /Odtp
;	COMDAT ?__empty_global_delete@@YAXPEAX_K@Z
_TEXT	SEGMENT
__formal$ = 8
__formal$ = 16
?__empty_global_delete@@YAXPEAX_K@Z PROC		; __empty_global_delete, COMDAT
; File F:\qt_projects\qhexedit2-master\example\Debug\moc_mainwindow.cpp
; Line 180
	mov	QWORD PTR [rsp+16], rdx
	mov	QWORD PTR [rsp+8], rcx
	ret	0
?__empty_global_delete@@YAXPEAX_K@Z ENDP		; __empty_global_delete
_TEXT	ENDS
; Function compile flags: /Odtp
;	COMDAT ?__empty_global_delete@@YAXPEAX@Z
_TEXT	SEGMENT
__formal$ = 8
?__empty_global_delete@@YAXPEAX@Z PROC			; __empty_global_delete, COMDAT
; File F:\qt_projects\qhexedit2-master\example\Debug\moc_mainwindow.cpp
; Line 180
	mov	QWORD PTR [rsp+8], rcx
	ret	0
?__empty_global_delete@@YAXPEAX@Z ENDP			; __empty_global_delete
_TEXT	ENDS
END
