; Listing generated by Microsoft (R) Optimizing Compiler Version 19.23.28105.4 

include listing.inc

INCLUDELIB LIBCMTD
INCLUDELIB OLDNAMES

CONST	SEGMENT
$SG189826 DB	'F:\QT_SW\5.12.4\MSVC2017_64\include\QtCore\qvector.h', 00H
	ORG $+3
$SG189827 DB	'asize >= 0 && asize <= aalloc', 00H
	ORG $+2
$SG189835 DB	'F:\QT_SW\5.12.4\MSVC2017_64\include\QtCore\qvector.h', 00H
	ORG $+3
?qt_meta_stringdata_QHexEdit@@3Uqt_meta_stringdata_QHexEdit_t@@B DD 0ffffffffH ; qt_meta_stringdata_QHexEdit
	DD	08H
	DD	00H
	ORG $+4
	DQ	0000000000000300H
	DD	0ffffffffH
	DD	015H
	DD	00H
	ORG $+4
	DQ	00000000000002f1H
	DD	0ffffffffH
	DD	00H
	DD	00H
	ORG $+4
	DQ	00000000000002efH
	DD	0ffffffffH
	DD	07H
	DD	00H
	ORG $+4
	DQ	00000000000002d8H
	DD	0ffffffffH
	DD	012H
	DD	00H
	ORG $+4
	DQ	00000000000002c8H
	DD	0ffffffffH
	DD	04H
	DD	00H
	ORG $+4
	DQ	00000000000002c3H
	DD	0ffffffffH
	DD	0bH
	DD	00H
	ORG $+4
	DQ	00000000000002b0H
	DD	0ffffffffH
	DD	014H
	DD	00H
	ORG $+4
	DQ	00000000000002a4H
	DD	0ffffffffH
	DD	05H
	DD	00H
	ORG $+4
	DQ	00000000000002a1H
	DD	0ffffffffH
	DD	04H
	DD	00H
	ORG $+4
	DQ	000000000000028fH
	DD	0ffffffffH
	DD	04H
	DD	00H
	ORG $+4
	DQ	000000000000027cH
	DD	0ffffffffH
	DD	06H
	DD	00H
	ORG $+4
	DQ	0000000000000269H
	DD	0ffffffffH
	DD	012H
	DD	00H
	ORG $+4
	DQ	0000000000000258H
	DD	0ffffffffH
	DD	03H
	DD	00H
	ORG $+4
	DQ	0000000000000253H
	DD	0ffffffffH
	DD	07H
	DD	00H
	ORG $+4
	DQ	000000000000023fH
	DD	0ffffffffH
	DD	0cH
	DD	00H
	ORG $+4
	DQ	000000000000022fH
	DD	0ffffffffH
	DD	0bH
	DD	00H
	ORG $+4
	DQ	0000000000000224H
	DD	0ffffffffH
	DD	010H
	DD	00H
	ORG $+4
	DQ	0000000000000218H
	DD	0ffffffffH
	DD	0dH
	DD	00H
	ORG $+4
	DQ	0000000000000211H
	DD	0ffffffffH
	DD	0cH
	DD	00H
	ORG $+4
	DQ	0000000000000207H
	DD	0ffffffffH
	DD	09H
	DD	00H
	ORG $+4
	DQ	00000000000001fcH
	DD	0ffffffffH
	DD	0cH
	DD	00H
	ORG $+4
	DQ	00000000000001eeH
	DD	0ffffffffH
	DD	0eH
	DD	00H
	ORG $+4
	DQ	00000000000001e3H
	DD	0ffffffffH
	DD	04H
	DD	00H
	ORG $+4
	DQ	00000000000001daH
	DD	0ffffffffH
	DD	07H
	DD	00H
	ORG $+4
	DQ	00000000000001c7H
	DD	0ffffffffH
	DD	013H
	DD	00H
	ORG $+4
	DQ	00000000000001b7H
	DD	0ffffffffH
	DD	0cH
	DD	00H
	ORG $+4
	DQ	00000000000001b3H
	DD	0ffffffffH
	DD	011H
	DD	00H
	ORG $+4
	DQ	00000000000001a8H
	DD	0ffffffffH
	DD	0dH
	DD	00H
	ORG $+4
	DQ	00000000000001a2H
	DD	0ffffffffH
	DD	0eH
	DD	00H
	ORG $+4
	DQ	0000000000000198H
	DD	0ffffffffH
	DD	08H
	DD	00H
	ORG $+4
	DQ	000000000000018fH
	DD	0ffffffffH
	DD	04H
	DD	00H
	ORG $+4
	DQ	0000000000000180H
	DB	051H
	DB	048H
	DB	065H
	DB	078H
	DB	045H
	DB	064H
	DB	069H
	DB	074H
	DB	00H
	DB	063H
	DB	075H
	DB	072H
	DB	072H
	DB	065H
	DB	06eH
	DB	074H
	DB	041H
	DB	064H
	DB	064H
	DB	072H
	DB	065H
	DB	073H
	DB	073H
	DB	043H
	DB	068H
	DB	061H
	DB	06eH
	DB	067H
	DB	065H
	DB	064H
	DB	00H
	DB	00H
	DB	061H
	DB	064H
	DB	064H
	DB	072H
	DB	065H
	DB	073H
	DB	073H
	DB	00H
	DB	063H
	DB	075H
	DB	072H
	DB	072H
	DB	065H
	DB	06eH
	DB	074H
	DB	053H
	DB	069H
	DB	07aH
	DB	065H
	DB	043H
	DB	068H
	DB	061H
	DB	06eH
	DB	067H
	DB	065H
	DB	064H
	DB	00H
	DB	073H
	DB	069H
	DB	07aH
	DB	065H
	DB	00H
	DB	064H
	DB	061H
	DB	074H
	DB	061H
	DB	043H
	DB	068H
	DB	061H
	DB	06eH
	DB	067H
	DB	065H
	DB	064H
	DB	00H
	DB	06fH
	DB	076H
	DB	065H
	DB	072H
	DB	077H
	DB	072H
	DB	069H
	DB	074H
	DB	065H
	DB	04dH
	DB	06fH
	DB	064H
	DB	065H
	DB	043H
	DB	068H
	DB	061H
	DB	06eH
	DB	067H
	DB	065H
	DB	064H
	DB	00H
	DB	073H
	DB	074H
	DB	061H
	DB	074H
	DB	065H
	DB	00H
	DB	072H
	DB	065H
	DB	064H
	DB	06fH
	DB	00H
	DB	075H
	DB	06eH
	DB	064H
	DB	06fH
	DB	00H
	DB	061H
	DB	064H
	DB	06aH
	DB	075H
	DB	073H
	DB	074H
	DB	00H
	DB	064H
	DB	061H
	DB	074H
	DB	061H
	DB	043H
	DB	068H
	DB	061H
	DB	06eH
	DB	067H
	DB	065H
	DB	064H
	DB	050H
	DB	072H
	DB	069H
	DB	076H
	DB	061H
	DB	074H
	DB	065H
	DB	00H
	DB	069H
	DB	064H
	DB	078H
	DB	00H
	DB	072H
	DB	065H
	DB	066H
	DB	072H
	DB	065H
	DB	073H
	DB	068H
	DB	00H
	DB	075H
	DB	070H
	DB	064H
	DB	061H
	DB	074H
	DB	065H
	DB	043H
	DB	075H
	DB	072H
	DB	073H
	DB	06fH
	DB	072H
	DB	00H
	DB	061H
	DB	064H
	DB	064H
	DB	072H
	DB	065H
	DB	073H
	DB	073H
	DB	041H
	DB	072H
	DB	065H
	DB	061H
	DB	00H
	DB	061H
	DB	064H
	DB	064H
	DB	072H
	DB	065H
	DB	073H
	DB	073H
	DB	041H
	DB	072H
	DB	065H
	DB	061H
	DB	043H
	DB	06fH
	DB	06cH
	DB	06fH
	DB	072H
	DB	00H
	DB	061H
	DB	064H
	DB	064H
	DB	072H
	DB	065H
	DB	073H
	DB	073H
	DB	04fH
	DB	066H
	DB	066H
	DB	073H
	DB	065H
	DB	074H
	DB	00H
	DB	061H
	DB	064H
	DB	064H
	DB	072H
	DB	065H
	DB	073H
	DB	073H
	DB	057H
	DB	069H
	DB	064H
	DB	074H
	DB	068H
	DB	00H
	DB	061H
	DB	073H
	DB	063H
	DB	069H
	DB	069H
	DB	041H
	DB	072H
	DB	065H
	DB	061H
	DB	00H
	DB	062H
	DB	079H
	DB	074H
	DB	065H
	DB	073H
	DB	050H
	DB	065H
	DB	072H
	DB	04cH
	DB	069H
	DB	06eH
	DB	065H
	DB	00H
	DB	063H
	DB	075H
	DB	072H
	DB	073H
	DB	06fH
	DB	072H
	DB	050H
	DB	06fH
	DB	073H
	DB	069H
	DB	074H
	DB	069H
	DB	06fH
	DB	06eH
	DB	00H
	DB	064H
	DB	061H
	DB	074H
	DB	061H
	DB	00H
	DB	068H
	DB	065H
	DB	078H
	DB	043H
	DB	061H
	DB	070H
	DB	073H
	DB	00H
	DB	064H
	DB	079H
	DB	06eH
	DB	061H
	DB	06dH
	DB	069H
	DB	063H
	DB	042H
	DB	079H
	DB	074H
	DB	065H
	DB	073H
	DB	050H
	DB	065H
	DB	072H
	DB	04cH
	DB	069H
	DB	06eH
	DB	065H
	DB	00H
	DB	068H
	DB	069H
	DB	067H
	DB	068H
	DB	06cH
	DB	069H
	DB	067H
	DB	068H
	DB	074H
	DB	069H
	DB	06eH
	DB	067H
	DB	00H
	DB	068H
	DB	069H
	DB	067H
	DB	068H
	DB	06cH
	DB	069H
	DB	067H
	DB	068H
	DB	074H
	DB	069H
	DB	06eH
	DB	067H
	DB	043H
	DB	06fH
	DB	06cH
	DB	06fH
	DB	072H
	DB	00H
	DB	06fH
	DB	076H
	DB	065H
	DB	072H
	DB	077H
	DB	072H
	DB	069H
	DB	074H
	DB	065H
	DB	04dH
	DB	06fH
	DB	064H
	DB	065H
	DB	00H
	DB	073H
	DB	065H
	DB	06cH
	DB	065H
	DB	063H
	DB	074H
	DB	069H
	DB	06fH
	DB	06eH
	DB	043H
	DB	06fH
	DB	06cH
	DB	06fH
	DB	072H
	DB	00H
	DB	072H
	DB	065H
	DB	061H
	DB	064H
	DB	04fH
	DB	06eH
	DB	06cH
	DB	079H
	DB	00H
	DB	066H
	DB	06fH
	DB	06eH
	DB	074H
	DB	00H
	ORG $+3
$SG189836 DB	'x->ref.isSharable() || options.testFlag(QArrayData::Unsh'
	DB	'arable)', 00H
$SG189837 DB	'F:\QT_SW\5.12.4\MSVC2017_64\include\QtCore\qvector.h', 00H
	ORG $+3
$SG189838 DB	'!x->ref.isStatic()', 00H
	ORG $+1
$SG186096 DB	'%s', 00H
	ORG $+1
$SG189851 DB	'F:\QT_SW\5.12.4\MSVC2017_64\include\QtCore\qvector.h', 00H
	ORG $+3
$SG189852 DB	'int(d->alloc) == aalloc', 00H
$SG189853 DB	'F:\QT_SW\5.12.4\MSVC2017_64\include\QtCore\qvector.h', 00H
	ORG $+3
$SG189854 DB	'isDetached()', 00H
	ORG $+3
$SG189855 DB	'F:\QT_SW\5.12.4\MSVC2017_64\include\QtCore\qvector.h', 00H
	ORG $+3
$SG189856 DB	'x == d', 00H
	ORG $+1
$SG189864 DB	'F:\QT_SW\5.12.4\MSVC2017_64\include\QtCore\qvector.h', 00H
	ORG $+3
$SG189865 DB	'd->data()', 00H
	ORG $+2
$SG196489 DB	'%s', 00H
	ORG $+1
$SG189866 DB	'F:\QT_SW\5.12.4\MSVC2017_64\include\QtCore\qvector.h', 00H
	ORG $+3
$SG189867 DB	'uint(d->size) <= d->alloc', 00H
	ORG $+6
$SG189868 DB	'F:\QT_SW\5.12.4\MSVC2017_64\include\QtCore\qvector.h', 00H
	ORG $+3
$SG189869 DB	'd != Data::unsharableEmpty()', 00H
	ORG $+3
$SG189870 DB	'F:\QT_SW\5.12.4\MSVC2017_64\include\QtCore\qvector.h', 00H
	ORG $+3
$SG189871 DB	'aalloc ? d != Data::sharedNull() : d == Data::sharedNull'
	DB	'()', 00H
	ORG $+5
$SG189872 DB	'F:\QT_SW\5.12.4\MSVC2017_64\include\QtCore\qvector.h', 00H
	ORG $+3
$SG189873 DB	'd->alloc >= uint(aalloc)', 00H
	ORG $+7
$SG189874 DB	'F:\QT_SW\5.12.4\MSVC2017_64\include\QtCore\qvector.h', 00H
	ORG $+3
$SG189875 DB	'd->size == asize', 00H
	ORG $+7
?qt_meta_data_QHexEdit@@3QBIB DD 08H			; qt_meta_data_QHexEdit
	DD	00H
	DD	00H
	DD	00H
	DD	0bH
	DD	0eH
	DD	010H
	DD	058H
	DD	00H
	DD	00H
	DD	00H
	DD	00H
	DD	00H
	DD	04H
	DD	01H
	DD	01H
	DD	045H
	DD	02H
	DD	06H
	DD	04H
	DD	01H
	DD	048H
	DD	02H
	DD	06H
	DD	06H
	DD	00H
	DD	04bH
	DD	02H
	DD	06H
	DD	07H
	DD	01H
	DD	04cH
	DD	02H
	DD	06H
	DD	09H
	DD	00H
	DD	04fH
	DD	02H
	DD	0aH
	DD	0aH
	DD	00H
	DD	050H
	DD	02H
	DD	0aH
	DD	0bH
	DD	00H
	DD	051H
	DD	02H
	DD	08H
	DD	0cH
	DD	01H
	DD	052H
	DD	02H
	DD	08H
	DD	0cH
	DD	00H
	DD	055H
	DD	02H
	DD	028H
	DD	0eH
	DD	00H
	DD	056H
	DD	02H
	DD	08H
	DD	0fH
	DD	00H
	DD	057H
	DD	02H
	DD	08H
	DD	02bH
	DD	04H
	DD	03H
	DD	02bH
	DD	04H
	DD	05H
	DD	02bH
	DD	02bH
	DD	01H
	DD	08H
	DD	02bH
	DD	02bH
	DD	02bH
	DD	02bH
	DD	02H
	DD	0dH
	DD	02bH
	DD	02bH
	DD	02bH
	DD	010H
	DD	01H
	DD	095103H
	DD	011H
	DD	043H
	DD	095103H
	DD	012H
	DD	04H
	DD	095103H
	DD	013H
	DD	02H
	DD	095103H
	DD	014H
	DD	01H
	DD	095103H
	DD	015H
	DD	02H
	DD	095103H
	DD	016H
	DD	04H
	DD	095103H
	DD	017H
	DD	0cH
	DD	0495103H
	DD	018H
	DD	01H
	DD	095103H
	DD	019H
	DD	01H
	DD	095103H
	DD	01aH
	DD	01H
	DD	095103H
	DD	01bH
	DD	043H
	DD	095103H
	DD	01cH
	DD	01H
	DD	095103H
	DD	01dH
	DD	043H
	DD	095103H
	DD	01eH
	DD	01H
	DD	095103H
	DD	01fH
	DD	040H
	DD	095103H
	DD	00H
	DD	00H
	DD	00H
	DD	00H
	DD	00H
	DD	00H
	DD	00H
	DD	02H
	DD	00H
	DD	00H
	DD	00H
	DD	00H
	DD	00H
	DD	00H
	DD	00H
	DD	00H
	DD	00H
	ORG $+4
$SG190683 DB	'F:\QT_SW\5.12.4\MSVC2017_64\include\QtCore\qmetatype.h', 00H
	ORG $+1
$SG190684 DB	'qRegisterNormalizedMetaType was called with a not normal'
	DB	'ized type name, please call qRegisterMetaType instead.', 00H
	ORG $+1
$SG190685 DB	'qRegisterNormalizedMetaType', 00H
	ORG $+4
$SG191010 DB	'F:\QT_SW\5.12.4\MSVC2017_64\include\QtCore\qmetatype.h', 00H
	ORG $+9
$SG191011 DB	'qRegisterNormalizedMetaType was called with a not normal'
	DB	'ized type name, please call qRegisterMetaType instead.', 00H
	ORG $+1
$SG191012 DB	'qRegisterNormalizedMetaType', 00H
	ORG $+4
$SG191337 DB	'F:\QT_SW\5.12.4\MSVC2017_64\include\QtCore\qmetatype.h', 00H
	ORG $+9
$SG191338 DB	'qRegisterNormalizedMetaType was called with a not normal'
	DB	'ized type name, please call qRegisterMetaType instead.', 00H
	ORG $+1
$SG191339 DB	'qRegisterNormalizedMetaType', 00H
	ORG $+4
$SG192153 DB	'F:\QT_SW\5.12.4\MSVC2017_64\include\QtCore\qmetatype.h', 00H
	ORG $+9
$SG192154 DB	'qRegisterNormalizedMetaType was called with a not normal'
	DB	'ized type name, please call qRegisterMetaType instead.', 00H
	ORG $+1
$SG192155 DB	'qRegisterNormalizedMetaType', 00H
	ORG $+4
$SG192519 DB	'F:\QT_SW\5.12.4\MSVC2017_64\include\QtCore\qmetatype.h', 00H
	ORG $+9
$SG192520 DB	'qRegisterNormalizedMetaType was called with a not normal'
	DB	'ized type name, please call qRegisterMetaType instead.', 00H
	ORG $+1
$SG192521 DB	'qRegisterNormalizedMetaType', 00H
	ORG $+4
$SG192846 DB	'F:\QT_SW\5.12.4\MSVC2017_64\include\QtCore\qmetatype.h', 00H
	ORG $+9
$SG192847 DB	'qRegisterNormalizedMetaType was called with a not normal'
	DB	'ized type name, please call qRegisterMetaType instead.', 00H
	ORG $+1
$SG192848 DB	'qRegisterNormalizedMetaType', 00H
	ORG $+4
$SG193173 DB	'F:\QT_SW\5.12.4\MSVC2017_64\include\QtCore\qmetatype.h', 00H
	ORG $+9
$SG193174 DB	'qRegisterNormalizedMetaType was called with a not normal'
	DB	'ized type name, please call qRegisterMetaType instead.', 00H
	ORG $+1
$SG193175 DB	'qRegisterNormalizedMetaType', 00H
	ORG $+4
$SG193500 DB	'F:\QT_SW\5.12.4\MSVC2017_64\include\QtCore\qmetatype.h', 00H
	ORG $+9
$SG193501 DB	'qRegisterNormalizedMetaType was called with a not normal'
	DB	'ized type name, please call qRegisterMetaType instead.', 00H
	ORG $+1
$SG193502 DB	'qRegisterNormalizedMetaType', 00H
	ORG $+4
$SG193852 DB	'F:\QT_SW\5.12.4\MSVC2017_64\include\QtCore\qmetatype.h', 00H
	ORG $+9
$SG193853 DB	'qRegisterNormalizedMetaType was called with a not normal'
	DB	'ized type name, please call qRegisterMetaType instead.', 00H
	ORG $+1
$SG193854 DB	'qRegisterNormalizedMetaType', 00H
	ORG $+4
$SG194179 DB	'F:\QT_SW\5.12.4\MSVC2017_64\include\QtCore\qmetatype.h', 00H
	ORG $+9
$SG194180 DB	'qRegisterNormalizedMetaType was called with a not normal'
	DB	'ized type name, please call qRegisterMetaType instead.', 00H
	ORG $+1
$SG194181 DB	'qRegisterNormalizedMetaType', 00H
	ORG $+4
$SG186095 DB	'containers incompatible for swap', 00H
	ORG $+15
$SG186097 DB	'C:\Program Files (x86)\Microsoft Visual Studio\2019\Comm'
	DB	'unity\VC\Tools\MSVC\14.23.28105\include\xmemory', 00H
	ORG $+8
$SG186098 DB	'C', 00H, ':', 00H, '\', 00H, 'P', 00H, 'r', 00H, 'o', 00H
	DB	'g', 00H, 'r', 00H, 'a', 00H, 'm', 00H, ' ', 00H, 'F', 00H, 'i'
	DB	00H, 'l', 00H, 'e', 00H, 's', 00H, ' ', 00H, '(', 00H, 'x', 00H
	DB	'8', 00H, '6', 00H, ')', 00H, '\', 00H, 'M', 00H, 'i', 00H, 'c'
	DB	00H, 'r', 00H, 'o', 00H, 's', 00H, 'o', 00H, 'f', 00H, 't', 00H
	DB	' ', 00H, 'V', 00H, 'i', 00H, 's', 00H, 'u', 00H, 'a', 00H, 'l'
	DB	00H, ' ', 00H, 'S', 00H, 't', 00H, 'u', 00H, 'd', 00H, 'i', 00H
	DB	'o', 00H, '\', 00H, '2', 00H, '0', 00H, '1', 00H, '9', 00H, '\'
	DB	00H, 'C', 00H, 'o', 00H, 'm', 00H, 'm', 00H, 'u', 00H, 'n', 00H
	DB	'i', 00H, 't', 00H, 'y', 00H, '\', 00H, 'V', 00H, 'C', 00H, '\'
	DB	00H, 'T', 00H, 'o', 00H, 'o', 00H, 'l', 00H, 's', 00H, '\', 00H
	DB	'M', 00H, 'S', 00H, 'V', 00H, 'C', 00H, '\', 00H, '1', 00H, '4'
	DB	00H, '.', 00H, '2', 00H, '3', 00H, '.', 00H, '2', 00H, '8', 00H
	DB	'1', 00H, '0', 00H, '5', 00H, '\', 00H, 'i', 00H, 'n', 00H, 'c'
	DB	00H, 'l', 00H, 'u', 00H, 'd', 00H, 'e', 00H, '\', 00H, 'x', 00H
	DB	'm', 00H, 'e', 00H, 'm', 00H, 'o', 00H, 'r', 00H, 'y', 00H, 00H
	DB	00H
$SG186099 DB	's', 00H, 't', 00H, 'd', 00H, ':', 00H, ':', 00H, '_', 00H
	DB	'P', 00H, 'o', 00H, 'c', 00H, 's', 00H, 00H, 00H
	ORG $+10
$SG186100 DB	'"', 00H, 'c', 00H, 'o', 00H, 'n', 00H, 't', 00H, 'a', 00H
	DB	'i', 00H, 'n', 00H, 'e', 00H, 'r', 00H, 's', 00H, ' ', 00H, 'i'
	DB	00H, 'n', 00H, 'c', 00H, 'o', 00H, 'm', 00H, 'p', 00H, 'a', 00H
	DB	't', 00H, 'i', 00H, 'b', 00H, 'l', 00H, 'e', 00H, ' ', 00H, 'f'
	DB	00H, 'o', 00H, 'r', 00H, ' ', 00H, 's', 00H, 'w', 00H, 'a', 00H
	DB	'p', 00H, '"', 00H, 00H, 00H
	ORG $+2
$SG194506 DB	'F:\QT_SW\5.12.4\MSVC2017_64\include\QtCore\qmetatype.h', 00H
	ORG $+1
$SG194507 DB	'qRegisterNormalizedMetaType was called with a not normal'
	DB	'ized type name, please call qRegisterMetaType instead.', 00H
	ORG $+1
$SG194508 DB	'qRegisterNormalizedMetaType', 00H
	ORG $+4
$SG194833 DB	'F:\QT_SW\5.12.4\MSVC2017_64\include\QtCore\qmetatype.h', 00H
	ORG $+9
$SG194834 DB	'qRegisterNormalizedMetaType was called with a not normal'
	DB	'ized type name, please call qRegisterMetaType instead.', 00H
	ORG $+1
$SG194835 DB	'qRegisterNormalizedMetaType', 00H
	ORG $+4
$SG186883 DB	'F:\QT_SW\5.12.4\MSVC2017_64\include\QtCore\qmetatype.h', 00H
	ORG $+9
$SG186884 DB	'qRegisterNormalizedMetaType was called with a not normal'
	DB	'ized type name, please call qRegisterMetaType instead.', 00H
	ORG $+1
$SG186885 DB	'qRegisterNormalizedMetaType', 00H
	ORG $+4
$SG196488 DB	'invalid argument', 00H
	ORG $+15
$SG196490 DB	'C:\Program Files (x86)\Microsoft Visual Studio\2019\Comm'
	DB	'unity\VC\Tools\MSVC\14.23.28105\include\xmemory', 00H
	ORG $+8
$SG196491 DB	'C', 00H, ':', 00H, '\', 00H, 'P', 00H, 'r', 00H, 'o', 00H
	DB	'g', 00H, 'r', 00H, 'a', 00H, 'm', 00H, ' ', 00H, 'F', 00H, 'i'
	DB	00H, 'l', 00H, 'e', 00H, 's', 00H, ' ', 00H, '(', 00H, 'x', 00H
	DB	'8', 00H, '6', 00H, ')', 00H, '\', 00H, 'M', 00H, 'i', 00H, 'c'
	DB	00H, 'r', 00H, 'o', 00H, 's', 00H, 'o', 00H, 'f', 00H, 't', 00H
	DB	' ', 00H, 'V', 00H, 'i', 00H, 's', 00H, 'u', 00H, 'a', 00H, 'l'
	DB	00H, ' ', 00H, 'S', 00H, 't', 00H, 'u', 00H, 'd', 00H, 'i', 00H
	DB	'o', 00H, '\', 00H, '2', 00H, '0', 00H, '1', 00H, '9', 00H, '\'
	DB	00H, 'C', 00H, 'o', 00H, 'm', 00H, 'm', 00H, 'u', 00H, 'n', 00H
	DB	'i', 00H, 't', 00H, 'y', 00H, '\', 00H, 'V', 00H, 'C', 00H, '\'
	DB	00H, 'T', 00H, 'o', 00H, 'o', 00H, 'l', 00H, 's', 00H, '\', 00H
	DB	'M', 00H, 'S', 00H, 'V', 00H, 'C', 00H, '\', 00H, '1', 00H, '4'
	DB	00H, '.', 00H, '2', 00H, '3', 00H, '.', 00H, '2', 00H, '8', 00H
	DB	'1', 00H, '0', 00H, '5', 00H, '\', 00H, 'i', 00H, 'n', 00H, 'c'
	DB	00H, 'l', 00H, 'u', 00H, 'd', 00H, 'e', 00H, '\', 00H, 'x', 00H
	DB	'm', 00H, 'e', 00H, 'm', 00H, 'o', 00H, 'r', 00H, 'y', 00H, 00H
	DB	00H
$SG196492 DB	's', 00H, 't', 00H, 'd', 00H, ':', 00H, ':', 00H, '_', 00H
	DB	'A', 00H, 'l', 00H, 'l', 00H, 'o', 00H, 'c', 00H, 'a', 00H, 't'
	DB	00H, 'e', 00H, '_', 00H, 'm', 00H, 'a', 00H, 'n', 00H, 'u', 00H
	DB	'a', 00H, 'l', 00H, 'l', 00H, 'y', 00H, '_', 00H, 'v', 00H, 'e'
	DB	00H, 'c', 00H, 't', 00H, 'o', 00H, 'r', 00H, '_', 00H, 'a', 00H
	DB	'l', 00H, 'i', 00H, 'g', 00H, 'n', 00H, 'e', 00H, 'd', 00H, 00H
	DB	00H
	ORG $+2
$SG196493 DB	'"', 00H, 'i', 00H, 'n', 00H, 'v', 00H, 'a', 00H, 'l', 00H
	DB	'i', 00H, 'd', 00H, ' ', 00H, 'a', 00H, 'r', 00H, 'g', 00H, 'u'
	DB	00H, 'm', 00H, 'e', 00H, 'n', 00H, 't', 00H, '"', 00H, 00H, 00H
CONST	ENDS
PUBLIC	?__empty_global_delete@@YAXPEAX@Z		; __empty_global_delete
PUBLIC	?__empty_global_delete@@YAXPEAX_K@Z		; __empty_global_delete
PUBLIC	??C?$QScopedPointer@VQObjectData@@U?$QScopedPointerDeleter@VQObjectData@@@@@@QEBAPEAVQObjectData@@XZ ; QScopedPointer<QObjectData,QScopedPointerDeleter<QObjectData> >::operator->
PUBLIC	?metaObject@QHexEdit@@UEBAPEBUQMetaObject@@XZ	; QHexEdit::metaObject
PUBLIC	?qt_metacast@QHexEdit@@UEAAPEAXPEBD@Z		; QHexEdit::qt_metacast
PUBLIC	?qt_metacall@QHexEdit@@UEAAHW4Call@QMetaObject@@HPEAPEAX@Z ; QHexEdit::qt_metacall
PUBLIC	?tr@QHexEdit@@SA?AVQString@@PEBD0H@Z		; QHexEdit::tr
PUBLIC	?trUtf8@QHexEdit@@SA?AVQString@@PEBD0H@Z	; QHexEdit::trUtf8
PUBLIC	?qt_static_metacall@QHexEdit@@CAXPEAVQObject@@W4Call@QMetaObject@@HPEAPEAX@Z ; QHexEdit::qt_static_metacall
PUBLIC	?currentAddressChanged@QHexEdit@@QEAAX_J@Z	; QHexEdit::currentAddressChanged
PUBLIC	?currentSizeChanged@QHexEdit@@QEAAX_J@Z		; QHexEdit::currentSizeChanged
PUBLIC	?dataChanged@QHexEdit@@QEAAXXZ			; QHexEdit::dataChanged
PUBLIC	?overwriteModeChanged@QHexEdit@@QEAAX_N@Z	; QHexEdit::overwriteModeChanged
PUBLIC	??_FQHexEdit@@QEAAXXZ				; QHexEdit::`default constructor closure'
PUBLIC	?staticMetaObject@QHexEdit@@2UQMetaObject@@B	; QHexEdit::staticMetaObject
EXTRN	strcmp:PROC
EXTRN	__imp_?tr@QMetaObject@@QEBA?AVQString@@PEBD0H@Z:PROC
EXTRN	__imp_?activate@QMetaObject@@SAXPEAVQObject@@PEBU1@HPEAPEAX@Z:PROC
EXTRN	__imp_??1QByteArray@@QEAA@XZ:PROC
EXTRN	__imp_??4QByteArray@@QEAAAEAV0@$$QEAV0@@Z:PROC
EXTRN	__imp_?dynamicMetaObject@QObjectData@@QEBAPEAUQMetaObject@@XZ:PROC
EXTRN	__imp_??4QColor@@QEAAAEAV0@$$QEAV0@@Z:PROC
EXTRN	__imp_??4QFont@@QEAAAEAV0@AEBV0@@Z:PROC
EXTRN	__imp_?font@QWidget@@QEBAAEBVQFont@@XZ:PROC
EXTRN	__imp_?qt_metacast@QAbstractScrollArea@@UEAAPEAXPEBD@Z:PROC
EXTRN	__imp_?qt_metacall@QAbstractScrollArea@@UEAAHW4Call@QMetaObject@@HPEAPEAX@Z:PROC
EXTRN	??0QHexEdit@@QEAA@PEAVQWidget@@@Z:PROC		; QHexEdit::QHexEdit
EXTRN	?setFont@QHexEdit@@QEAAXAEBVQFont@@@Z:PROC	; QHexEdit::setFont
EXTRN	?redo@QHexEdit@@QEAAXXZ:PROC			; QHexEdit::redo
EXTRN	?undo@QHexEdit@@QEAAXXZ:PROC			; QHexEdit::undo
EXTRN	?addressArea@QHexEdit@@QEAA_NXZ:PROC		; QHexEdit::addressArea
EXTRN	?setAddressArea@QHexEdit@@QEAAX_N@Z:PROC	; QHexEdit::setAddressArea
EXTRN	?addressAreaColor@QHexEdit@@QEAA?AVQColor@@XZ:PROC ; QHexEdit::addressAreaColor
EXTRN	?setAddressAreaColor@QHexEdit@@QEAAXAEBVQColor@@@Z:PROC ; QHexEdit::setAddressAreaColor
EXTRN	?addressOffset@QHexEdit@@QEAA_JXZ:PROC		; QHexEdit::addressOffset
EXTRN	?setAddressOffset@QHexEdit@@QEAAX_J@Z:PROC	; QHexEdit::setAddressOffset
EXTRN	?addressWidth@QHexEdit@@QEAAHXZ:PROC		; QHexEdit::addressWidth
EXTRN	?setAddressWidth@QHexEdit@@QEAAXH@Z:PROC	; QHexEdit::setAddressWidth
EXTRN	?asciiArea@QHexEdit@@QEAA_NXZ:PROC		; QHexEdit::asciiArea
EXTRN	?setAsciiArea@QHexEdit@@QEAAX_N@Z:PROC		; QHexEdit::setAsciiArea
EXTRN	?bytesPerLine@QHexEdit@@QEAAHXZ:PROC		; QHexEdit::bytesPerLine
EXTRN	?setBytesPerLine@QHexEdit@@QEAAXH@Z:PROC	; QHexEdit::setBytesPerLine
EXTRN	?cursorPosition@QHexEdit@@QEAA_JXZ:PROC		; QHexEdit::cursorPosition
EXTRN	?setCursorPosition@QHexEdit@@QEAAX_J@Z:PROC	; QHexEdit::setCursorPosition
EXTRN	?data@QHexEdit@@QEAA?AVQByteArray@@XZ:PROC	; QHexEdit::data
EXTRN	?setData@QHexEdit@@QEAAXAEBVQByteArray@@@Z:PROC	; QHexEdit::setData
EXTRN	?setHexCaps@QHexEdit@@QEAAX_N@Z:PROC		; QHexEdit::setHexCaps
EXTRN	?hexCaps@QHexEdit@@QEAA_NXZ:PROC		; QHexEdit::hexCaps
EXTRN	?setDynamicBytesPerLine@QHexEdit@@QEAAX_N@Z:PROC ; QHexEdit::setDynamicBytesPerLine
EXTRN	?dynamicBytesPerLine@QHexEdit@@QEAA_NXZ:PROC	; QHexEdit::dynamicBytesPerLine
EXTRN	?highlighting@QHexEdit@@QEAA_NXZ:PROC		; QHexEdit::highlighting
EXTRN	?setHighlighting@QHexEdit@@QEAAX_N@Z:PROC	; QHexEdit::setHighlighting
EXTRN	?highlightingColor@QHexEdit@@QEAA?AVQColor@@XZ:PROC ; QHexEdit::highlightingColor
EXTRN	?setHighlightingColor@QHexEdit@@QEAAXAEBVQColor@@@Z:PROC ; QHexEdit::setHighlightingColor
EXTRN	?overwriteMode@QHexEdit@@QEAA_NXZ:PROC		; QHexEdit::overwriteMode
EXTRN	?setOverwriteMode@QHexEdit@@QEAAX_N@Z:PROC	; QHexEdit::setOverwriteMode
EXTRN	?isReadOnly@QHexEdit@@QEAA_NXZ:PROC		; QHexEdit::isReadOnly
EXTRN	?setReadOnly@QHexEdit@@QEAAX_N@Z:PROC		; QHexEdit::setReadOnly
EXTRN	?selectionColor@QHexEdit@@QEAA?AVQColor@@XZ:PROC ; QHexEdit::selectionColor
EXTRN	?setSelectionColor@QHexEdit@@QEAAXAEBVQColor@@@Z:PROC ; QHexEdit::setSelectionColor
EXTRN	?adjust@QHexEdit@@AEAAXXZ:PROC			; QHexEdit::adjust
EXTRN	?dataChangedPrivate@QHexEdit@@AEAAXH@Z:PROC	; QHexEdit::dataChangedPrivate
EXTRN	?refresh@QHexEdit@@AEAAXXZ:PROC			; QHexEdit::refresh
EXTRN	?updateCursor@QHexEdit@@AEAAXXZ:PROC		; QHexEdit::updateCursor
EXTRN	__GSHandlerCheck:PROC
EXTRN	__security_check_cookie:PROC
EXTRN	__imp_?staticMetaObject@QAbstractScrollArea@@2UQMetaObject@@B:BYTE
EXTRN	__ImageBase:BYTE
EXTRN	__security_cookie:QWORD
_BSS	SEGMENT
?staticMetaObject@QHexEdit@@2UQMetaObject@@B DB 030H DUP (?) ; QHexEdit::staticMetaObject
_BSS	ENDS
pdata	SEGMENT
$pdata$?metaObject@QHexEdit@@UEBAPEBUQMetaObject@@XZ DD imagerel $LN5
	DD	imagerel $LN5+88
	DD	imagerel $unwind$?metaObject@QHexEdit@@UEBAPEBUQMetaObject@@XZ
$pdata$?qt_metacast@QHexEdit@@UEAAPEAXPEBD@Z DD imagerel $LN5
	DD	imagerel $LN5+75
	DD	imagerel $unwind$?qt_metacast@QHexEdit@@UEAAPEAXPEBD@Z
$pdata$?qt_metacall@QHexEdit@@UEAAHW4Call@QMetaObject@@HPEAPEAX@Z DD imagerel $LN22
	DD	imagerel $LN22+348
	DD	imagerel $unwind$?qt_metacall@QHexEdit@@UEAAHW4Call@QMetaObject@@HPEAPEAX@Z
pdata	ENDS
;	COMDAT pdata
pdata	SEGMENT
$pdata$?tr@QHexEdit@@SA?AVQString@@PEBD0H@Z DD imagerel $LN5
	DD	imagerel $LN5+89
	DD	imagerel $unwind$?tr@QHexEdit@@SA?AVQString@@PEBD0H@Z
pdata	ENDS
;	COMDAT pdata
pdata	SEGMENT
$pdata$?trUtf8@QHexEdit@@SA?AVQString@@PEBD0H@Z DD imagerel $LN5
	DD	imagerel $LN5+89
	DD	imagerel $unwind$?trUtf8@QHexEdit@@SA?AVQString@@PEBD0H@Z
pdata	ENDS
pdata	SEGMENT
$pdata$?qt_static_metacall@QHexEdit@@CAXPEAVQObject@@W4Call@QMetaObject@@HPEAPEAX@Z DD imagerel $LN84
	DD	imagerel $LN84+2196
	DD	imagerel $unwind$?qt_static_metacall@QHexEdit@@CAXPEAVQObject@@W4Call@QMetaObject@@HPEAPEAX@Z
$pdata$?currentAddressChanged@QHexEdit@@QEAAX_J@Z DD imagerel $LN3
	DD	imagerel $LN3+64
	DD	imagerel $unwind$?currentAddressChanged@QHexEdit@@QEAAX_J@Z
$pdata$?currentSizeChanged@QHexEdit@@QEAAX_J@Z DD imagerel $LN3
	DD	imagerel $LN3+67
	DD	imagerel $unwind$?currentSizeChanged@QHexEdit@@QEAAX_J@Z
$pdata$?dataChanged@QHexEdit@@QEAAXXZ DD imagerel $LN3
	DD	imagerel $LN3+41
	DD	imagerel $unwind$?dataChanged@QHexEdit@@QEAAXXZ
$pdata$?overwriteModeChanged@QHexEdit@@QEAAX_N@Z DD imagerel $LN3
	DD	imagerel $LN3+66
	DD	imagerel $unwind$?overwriteModeChanged@QHexEdit@@QEAAX_N@Z
pdata	ENDS
;	COMDAT pdata
pdata	SEGMENT
$pdata$??_FQHexEdit@@QEAAXXZ DD imagerel $LN3
	DD	imagerel $LN3+26
	DD	imagerel $unwind$??_FQHexEdit@@QEAAXXZ
pdata	ENDS
CRT$XCU	SEGMENT
??staticMetaObject$initializer$@QHexEdit@@2P6AXXZEA@@3P6AXXZEA DQ FLAT:??__E?staticMetaObject@QHexEdit@@2UQMetaObject@@B@@YAXXZ ; ??staticMetaObject$initializer$@QHexEdit@@2P6AXXZEA@@3P6AXXZEA
CRT$XCU	ENDS
;	COMDAT xdata
xdata	SEGMENT
$unwind$??_FQHexEdit@@QEAAXXZ DD 010901H
	DD	04209H
xdata	ENDS
;	COMDAT xdata
xdata	SEGMENT
$unwind$?trUtf8@QHexEdit@@SA?AVQString@@PEBD0H@Z DD 011801H
	DD	08218H
xdata	ENDS
;	COMDAT xdata
xdata	SEGMENT
$unwind$?tr@QHexEdit@@SA?AVQString@@PEBD0H@Z DD 011801H
	DD	08218H
xdata	ENDS
xdata	SEGMENT
$unwind$?metaObject@QHexEdit@@UEBAPEBUQMetaObject@@XZ DD 010901H
	DD	06209H
$unwind$?qt_metacast@QHexEdit@@UEAAPEAXPEBD@Z DD 010e01H
	DD	0420eH
$unwind$?qt_metacall@QHexEdit@@UEAAHW4Call@QMetaObject@@HPEAPEAX@Z DD 011701H
	DD	04217H
$unwind$?qt_static_metacall@QHexEdit@@CAXPEAVQObject@@W4Call@QMetaObject@@HPEAPEAX@Z DD 022c19H
	DD	021011aH
	DD	imagerel __GSHandlerCheck
	DD	0f0H
$unwind$?currentAddressChanged@QHexEdit@@QEAAX_J@Z DD 010e01H
	DD	0620eH
$unwind$?currentSizeChanged@QHexEdit@@QEAAX_J@Z DD 010e01H
	DD	0620eH
$unwind$?dataChanged@QHexEdit@@QEAAXXZ DD 010901H
	DD	04209H
$unwind$?overwriteModeChanged@QHexEdit@@QEAAX_N@Z DD 010d01H
	DD	0620dH
xdata	ENDS
; Function compile flags: /Odtp
;	COMDAT ??__E?staticMetaObject@QHexEdit@@2UQMetaObject@@B@@YAXXZ
text$di	SEGMENT
??__E?staticMetaObject@QHexEdit@@2UQMetaObject@@B@@YAXXZ PROC ; `dynamic initializer for 'QHexEdit::staticMetaObject'', COMDAT
; File F:\qt_projects\qhexedit2-master\example\Debug\moc_qhexedit.cpp
; Line 266
	mov	rax, QWORD PTR __imp_?staticMetaObject@QAbstractScrollArea@@2UQMetaObject@@B
	mov	QWORD PTR ?staticMetaObject@QHexEdit@@2UQMetaObject@@B, rax
; Line 267
	lea	rax, OFFSET FLAT:?qt_meta_stringdata_QHexEdit@@3Uqt_meta_stringdata_QHexEdit_t@@B
	mov	QWORD PTR ?staticMetaObject@QHexEdit@@2UQMetaObject@@B+8, rax
; Line 268
	lea	rax, OFFSET FLAT:?qt_meta_data_QHexEdit@@3QBIB
	mov	QWORD PTR ?staticMetaObject@QHexEdit@@2UQMetaObject@@B+16, rax
; Line 269
	lea	rax, OFFSET FLAT:?qt_static_metacall@QHexEdit@@CAXPEAVQObject@@W4Call@QMetaObject@@HPEAPEAX@Z ; QHexEdit::qt_static_metacall
	mov	QWORD PTR ?staticMetaObject@QHexEdit@@2UQMetaObject@@B+24, rax
; Line 270
	mov	QWORD PTR ?staticMetaObject@QHexEdit@@2UQMetaObject@@B+32, 0
; Line 271
	mov	QWORD PTR ?staticMetaObject@QHexEdit@@2UQMetaObject@@B+40, 0
	ret	0
??__E?staticMetaObject@QHexEdit@@2UQMetaObject@@B@@YAXXZ ENDP ; `dynamic initializer for 'QHexEdit::staticMetaObject''
text$di	ENDS
; Function compile flags: /Odtp
;	COMDAT ??_FQHexEdit@@QEAAXXZ
_TEXT	SEGMENT
this$ = 48
??_FQHexEdit@@QEAAXXZ PROC				; QHexEdit::`default constructor closure', COMDAT
$LN3:
	mov	QWORD PTR [rsp+8], rcx
	sub	rsp, 40					; 00000028H
	xor	edx, edx
	mov	rcx, QWORD PTR this$[rsp]
	call	??0QHexEdit@@QEAA@PEAVQWidget@@@Z	; QHexEdit::QHexEdit
	add	rsp, 40					; 00000028H
	ret	0
??_FQHexEdit@@QEAAXXZ ENDP				; QHexEdit::`default constructor closure'
_TEXT	ENDS
; Function compile flags: /Odtp
_TEXT	SEGMENT
_a$ = 32
this$ = 64
_t1$ = 72
?overwriteModeChanged@QHexEdit@@QEAAX_N@Z PROC		; QHexEdit::overwriteModeChanged
; File F:\qt_projects\qhexedit2-master\example\Debug\moc_qhexedit.cpp
; Line 344
$LN3:
	mov	BYTE PTR [rsp+16], dl
	mov	QWORD PTR [rsp+8], rcx
	sub	rsp, 56					; 00000038H
; Line 345
	mov	QWORD PTR _a$[rsp], 0
	lea	rax, QWORD PTR _t1$[rsp]
	mov	QWORD PTR _a$[rsp+8], rax
; Line 346
	lea	r9, QWORD PTR _a$[rsp]
	mov	r8d, 3
	lea	rdx, OFFSET FLAT:?staticMetaObject@QHexEdit@@2UQMetaObject@@B ; QHexEdit::staticMetaObject
	mov	rcx, QWORD PTR this$[rsp]
	call	QWORD PTR __imp_?activate@QMetaObject@@SAXPEAVQObject@@PEBU1@HPEAPEAX@Z
; Line 347
	add	rsp, 56					; 00000038H
	ret	0
?overwriteModeChanged@QHexEdit@@QEAAX_N@Z ENDP		; QHexEdit::overwriteModeChanged
_TEXT	ENDS
; Function compile flags: /Odtp
_TEXT	SEGMENT
this$ = 48
?dataChanged@QHexEdit@@QEAAXXZ PROC			; QHexEdit::dataChanged
; File F:\qt_projects\qhexedit2-master\example\Debug\moc_qhexedit.cpp
; Line 338
$LN3:
	mov	QWORD PTR [rsp+8], rcx
	sub	rsp, 40					; 00000028H
; Line 339
	xor	r9d, r9d
	mov	r8d, 2
	lea	rdx, OFFSET FLAT:?staticMetaObject@QHexEdit@@2UQMetaObject@@B ; QHexEdit::staticMetaObject
	mov	rcx, QWORD PTR this$[rsp]
	call	QWORD PTR __imp_?activate@QMetaObject@@SAXPEAVQObject@@PEBU1@HPEAPEAX@Z
; Line 340
	add	rsp, 40					; 00000028H
	ret	0
?dataChanged@QHexEdit@@QEAAXXZ ENDP			; QHexEdit::dataChanged
_TEXT	ENDS
; Function compile flags: /Odtp
_TEXT	SEGMENT
_a$ = 32
this$ = 64
_t1$ = 72
?currentSizeChanged@QHexEdit@@QEAAX_J@Z PROC		; QHexEdit::currentSizeChanged
; File F:\qt_projects\qhexedit2-master\example\Debug\moc_qhexedit.cpp
; Line 331
$LN3:
	mov	QWORD PTR [rsp+16], rdx
	mov	QWORD PTR [rsp+8], rcx
	sub	rsp, 56					; 00000038H
; Line 332
	mov	QWORD PTR _a$[rsp], 0
	lea	rax, QWORD PTR _t1$[rsp]
	mov	QWORD PTR _a$[rsp+8], rax
; Line 333
	lea	r9, QWORD PTR _a$[rsp]
	mov	r8d, 1
	lea	rdx, OFFSET FLAT:?staticMetaObject@QHexEdit@@2UQMetaObject@@B ; QHexEdit::staticMetaObject
	mov	rcx, QWORD PTR this$[rsp]
	call	QWORD PTR __imp_?activate@QMetaObject@@SAXPEAVQObject@@PEBU1@HPEAPEAX@Z
; Line 334
	add	rsp, 56					; 00000038H
	ret	0
?currentSizeChanged@QHexEdit@@QEAAX_J@Z ENDP		; QHexEdit::currentSizeChanged
_TEXT	ENDS
; Function compile flags: /Odtp
_TEXT	SEGMENT
_a$ = 32
this$ = 64
_t1$ = 72
?currentAddressChanged@QHexEdit@@QEAAX_J@Z PROC		; QHexEdit::currentAddressChanged
; File F:\qt_projects\qhexedit2-master\example\Debug\moc_qhexedit.cpp
; Line 324
$LN3:
	mov	QWORD PTR [rsp+16], rdx
	mov	QWORD PTR [rsp+8], rcx
	sub	rsp, 56					; 00000038H
; Line 325
	mov	QWORD PTR _a$[rsp], 0
	lea	rax, QWORD PTR _t1$[rsp]
	mov	QWORD PTR _a$[rsp+8], rax
; Line 326
	lea	r9, QWORD PTR _a$[rsp]
	xor	r8d, r8d
	lea	rdx, OFFSET FLAT:?staticMetaObject@QHexEdit@@2UQMetaObject@@B ; QHexEdit::staticMetaObject
	mov	rcx, QWORD PTR this$[rsp]
	call	QWORD PTR __imp_?activate@QMetaObject@@SAXPEAVQObject@@PEBU1@HPEAPEAX@Z
; Line 327
	add	rsp, 56					; 00000038H
	ret	0
?currentAddressChanged@QHexEdit@@QEAAX_J@Z ENDP		; QHexEdit::currentAddressChanged
_TEXT	ENDS
; Function compile flags: /Odtp
_TEXT	SEGMENT
_t$1 = 32
_v$2 = 40
_v$3 = 48
_t$4 = 56
_t$5 = 64
tv69 = 72
tv146 = 76
tv160 = 80
tv174 = 84
tv188 = 88
tv197 = 92
tv258 = 96
result$6 = 104
tv294 = 112
$T7 = 120
$T8 = 128
$T9 = 144
$T10 = 160
$T11 = 176
$T12 = 192
$T13 = 208
$T14 = 224
__$ArrayPad$ = 240
_o$ = 272
_c$ = 280
_id$ = 288
_a$ = 296
?qt_static_metacall@QHexEdit@@CAXPEAVQObject@@W4Call@QMetaObject@@HPEAPEAX@Z PROC ; QHexEdit::qt_static_metacall
; File F:\qt_projects\qhexedit2-master\example\Debug\moc_qhexedit.cpp
; Line 164
$LN84:
	mov	QWORD PTR [rsp+32], r9
	mov	DWORD PTR [rsp+24], r8d
	mov	DWORD PTR [rsp+16], edx
	mov	QWORD PTR [rsp+8], rcx
	sub	rsp, 264				; 00000108H
	mov	rax, QWORD PTR __security_cookie
	xor	rax, rsp
	mov	QWORD PTR __$ArrayPad$[rsp], rax
; Line 165
	cmp	DWORD PTR _c$[rsp], 0
	jne	$LN8@qt_static_
; Line 166
	mov	rax, QWORD PTR _o$[rsp]
	mov	QWORD PTR _t$5[rsp], rax
; Line 168
	mov	eax, DWORD PTR _id$[rsp]
	mov	DWORD PTR tv69[rsp], eax
	cmp	DWORD PTR tv69[rsp], 10
	ja	$LN2@qt_static_
	movsxd	rax, DWORD PTR tv69[rsp]
	lea	rcx, OFFSET FLAT:__ImageBase
	mov	eax, DWORD PTR $LN83@qt_static_[rcx+rax*4]
	add	rax, rcx
	jmp	rax
$LN10@qt_static_:
; Line 169
	mov	eax, 8
	imul	rax, rax, 1
	mov	rcx, QWORD PTR _a$[rsp]
	mov	rax, QWORD PTR [rcx+rax]
	mov	rdx, QWORD PTR [rax]
	mov	rcx, QWORD PTR _t$5[rsp]
	call	?currentAddressChanged@QHexEdit@@QEAAX_J@Z ; QHexEdit::currentAddressChanged
	jmp	$LN2@qt_static_
$LN11@qt_static_:
; Line 170
	mov	eax, 8
	imul	rax, rax, 1
	mov	rcx, QWORD PTR _a$[rsp]
	mov	rax, QWORD PTR [rcx+rax]
	mov	rdx, QWORD PTR [rax]
	mov	rcx, QWORD PTR _t$5[rsp]
	call	?currentSizeChanged@QHexEdit@@QEAAX_J@Z	; QHexEdit::currentSizeChanged
	jmp	$LN2@qt_static_
$LN12@qt_static_:
; Line 171
	mov	rcx, QWORD PTR _t$5[rsp]
	call	?dataChanged@QHexEdit@@QEAAXXZ		; QHexEdit::dataChanged
	jmp	$LN2@qt_static_
$LN13@qt_static_:
; Line 172
	mov	eax, 8
	imul	rax, rax, 1
	mov	rcx, QWORD PTR _a$[rsp]
	mov	rax, QWORD PTR [rcx+rax]
	movzx	edx, BYTE PTR [rax]
	mov	rcx, QWORD PTR _t$5[rsp]
	call	?overwriteModeChanged@QHexEdit@@QEAAX_N@Z ; QHexEdit::overwriteModeChanged
	jmp	SHORT $LN2@qt_static_
$LN14@qt_static_:
; Line 173
	mov	rcx, QWORD PTR _t$5[rsp]
	call	?redo@QHexEdit@@QEAAXXZ			; QHexEdit::redo
	jmp	SHORT $LN2@qt_static_
$LN15@qt_static_:
; Line 174
	mov	rcx, QWORD PTR _t$5[rsp]
	call	?undo@QHexEdit@@QEAAXXZ			; QHexEdit::undo
	jmp	SHORT $LN2@qt_static_
$LN16@qt_static_:
; Line 175
	mov	rcx, QWORD PTR _t$5[rsp]
	call	?adjust@QHexEdit@@AEAAXXZ		; QHexEdit::adjust
	jmp	SHORT $LN2@qt_static_
$LN17@qt_static_:
; Line 176
	mov	eax, 8
	imul	rax, rax, 1
	mov	rcx, QWORD PTR _a$[rsp]
	mov	rax, QWORD PTR [rcx+rax]
	mov	edx, DWORD PTR [rax]
	mov	rcx, QWORD PTR _t$5[rsp]
	call	?dataChangedPrivate@QHexEdit@@AEAAXH@Z	; QHexEdit::dataChangedPrivate
	jmp	SHORT $LN2@qt_static_
$LN18@qt_static_:
; Line 177
	xor	edx, edx
	mov	rcx, QWORD PTR _t$5[rsp]
	call	?dataChangedPrivate@QHexEdit@@AEAAXH@Z	; QHexEdit::dataChangedPrivate
	jmp	SHORT $LN2@qt_static_
$LN19@qt_static_:
; Line 178
	mov	rcx, QWORD PTR _t$5[rsp]
	call	?refresh@QHexEdit@@AEAAXXZ		; QHexEdit::refresh
	jmp	SHORT $LN2@qt_static_
$LN20@qt_static_:
; Line 179
	mov	rcx, QWORD PTR _t$5[rsp]
	call	?updateCursor@QHexEdit@@AEAAXXZ		; QHexEdit::updateCursor
$LN2@qt_static_:
; Line 182
	jmp	$LN1@qt_static_
$LN8@qt_static_:
	cmp	DWORD PTR _c$[rsp], 10
	jne	$LN22@qt_static_
; Line 183
	mov	eax, 8
	imul	rax, rax, 0
	mov	rcx, QWORD PTR _a$[rsp]
	mov	rax, QWORD PTR [rcx+rax]
	mov	QWORD PTR result$6[rsp], rax
; Line 186
	lea	rax, OFFSET FLAT:?currentAddressChanged@QHexEdit@@QEAAX_J@Z ; QHexEdit::currentAddressChanged
	mov	QWORD PTR $T8[rsp], rax
	mov	DWORD PTR $T8[rsp+8], 0
	mov	eax, 8
	imul	rax, rax, 1
	mov	rcx, QWORD PTR _a$[rsp]
	mov	rax, QWORD PTR [rcx+rax]
	mov	rcx, QWORD PTR $T8[rsp]
	cmp	QWORD PTR [rax], rcx
	jne	SHORT $LN69@qt_static_
	mov	eax, 8
	imul	rax, rax, 1
	mov	rcx, QWORD PTR _a$[rsp]
	mov	rax, QWORD PTR [rcx+rax]
	cmp	QWORD PTR [rax], 0
	je	SHORT $LN68@qt_static_
	mov	eax, 8
	imul	rax, rax, 1
	mov	rcx, QWORD PTR _a$[rsp]
	mov	rax, QWORD PTR [rcx+rax]
	mov	ecx, DWORD PTR $T8[rsp+8]
	cmp	DWORD PTR [rax+8], ecx
	jne	SHORT $LN69@qt_static_
$LN68@qt_static_:
	mov	DWORD PTR tv146[rsp], 1
	jmp	SHORT $LN70@qt_static_
$LN69@qt_static_:
	mov	DWORD PTR tv146[rsp], 0
$LN70@qt_static_:
	cmp	DWORD PTR tv146[rsp], 0
	je	SHORT $LN24@qt_static_
; Line 187
	mov	rax, QWORD PTR result$6[rsp]
	mov	DWORD PTR [rax], 0
; Line 188
	jmp	$LN1@qt_static_
$LN24@qt_static_:
; Line 193
	lea	rax, OFFSET FLAT:?currentSizeChanged@QHexEdit@@QEAAX_J@Z ; QHexEdit::currentSizeChanged
	mov	QWORD PTR $T9[rsp], rax
	mov	DWORD PTR $T9[rsp+8], 0
	mov	eax, 8
	imul	rax, rax, 1
	mov	rcx, QWORD PTR _a$[rsp]
	mov	rax, QWORD PTR [rcx+rax]
	mov	rcx, QWORD PTR $T9[rsp]
	cmp	QWORD PTR [rax], rcx
	jne	SHORT $LN72@qt_static_
	mov	eax, 8
	imul	rax, rax, 1
	mov	rcx, QWORD PTR _a$[rsp]
	mov	rax, QWORD PTR [rcx+rax]
	cmp	QWORD PTR [rax], 0
	je	SHORT $LN71@qt_static_
	mov	eax, 8
	imul	rax, rax, 1
	mov	rcx, QWORD PTR _a$[rsp]
	mov	rax, QWORD PTR [rcx+rax]
	mov	ecx, DWORD PTR $T9[rsp+8]
	cmp	DWORD PTR [rax+8], ecx
	jne	SHORT $LN72@qt_static_
$LN71@qt_static_:
	mov	DWORD PTR tv160[rsp], 1
	jmp	SHORT $LN73@qt_static_
$LN72@qt_static_:
	mov	DWORD PTR tv160[rsp], 0
$LN73@qt_static_:
	cmp	DWORD PTR tv160[rsp], 0
	je	SHORT $LN25@qt_static_
; Line 194
	mov	rax, QWORD PTR result$6[rsp]
	mov	DWORD PTR [rax], 1
; Line 195
	jmp	$LN1@qt_static_
$LN25@qt_static_:
; Line 200
	lea	rax, OFFSET FLAT:?dataChanged@QHexEdit@@QEAAXXZ ; QHexEdit::dataChanged
	mov	QWORD PTR $T10[rsp], rax
	mov	DWORD PTR $T10[rsp+8], 0
	mov	eax, 8
	imul	rax, rax, 1
	mov	rcx, QWORD PTR _a$[rsp]
	mov	rax, QWORD PTR [rcx+rax]
	mov	rcx, QWORD PTR $T10[rsp]
	cmp	QWORD PTR [rax], rcx
	jne	SHORT $LN75@qt_static_
	mov	eax, 8
	imul	rax, rax, 1
	mov	rcx, QWORD PTR _a$[rsp]
	mov	rax, QWORD PTR [rcx+rax]
	cmp	QWORD PTR [rax], 0
	je	SHORT $LN74@qt_static_
	mov	eax, 8
	imul	rax, rax, 1
	mov	rcx, QWORD PTR _a$[rsp]
	mov	rax, QWORD PTR [rcx+rax]
	mov	ecx, DWORD PTR $T10[rsp+8]
	cmp	DWORD PTR [rax+8], ecx
	jne	SHORT $LN75@qt_static_
$LN74@qt_static_:
	mov	DWORD PTR tv174[rsp], 1
	jmp	SHORT $LN76@qt_static_
$LN75@qt_static_:
	mov	DWORD PTR tv174[rsp], 0
$LN76@qt_static_:
	cmp	DWORD PTR tv174[rsp], 0
	je	SHORT $LN26@qt_static_
; Line 201
	mov	rax, QWORD PTR result$6[rsp]
	mov	DWORD PTR [rax], 2
; Line 202
	jmp	$LN1@qt_static_
$LN26@qt_static_:
; Line 207
	lea	rax, OFFSET FLAT:?overwriteModeChanged@QHexEdit@@QEAAX_N@Z ; QHexEdit::overwriteModeChanged
	mov	QWORD PTR $T11[rsp], rax
	mov	DWORD PTR $T11[rsp+8], 0
	mov	eax, 8
	imul	rax, rax, 1
	mov	rcx, QWORD PTR _a$[rsp]
	mov	rax, QWORD PTR [rcx+rax]
	mov	rcx, QWORD PTR $T11[rsp]
	cmp	QWORD PTR [rax], rcx
	jne	SHORT $LN78@qt_static_
	mov	eax, 8
	imul	rax, rax, 1
	mov	rcx, QWORD PTR _a$[rsp]
	mov	rax, QWORD PTR [rcx+rax]
	cmp	QWORD PTR [rax], 0
	je	SHORT $LN77@qt_static_
	mov	eax, 8
	imul	rax, rax, 1
	mov	rcx, QWORD PTR _a$[rsp]
	mov	rax, QWORD PTR [rcx+rax]
	mov	ecx, DWORD PTR $T11[rsp+8]
	cmp	DWORD PTR [rax+8], ecx
	jne	SHORT $LN78@qt_static_
$LN77@qt_static_:
	mov	DWORD PTR tv188[rsp], 1
	jmp	SHORT $LN79@qt_static_
$LN78@qt_static_:
	mov	DWORD PTR tv188[rsp], 0
$LN79@qt_static_:
	cmp	DWORD PTR tv188[rsp], 0
	je	SHORT $LN27@qt_static_
; Line 208
	mov	rax, QWORD PTR result$6[rsp]
	mov	DWORD PTR [rax], 3
; Line 209
	jmp	$LN1@qt_static_
$LN27@qt_static_:
; Line 212
	jmp	$LN1@qt_static_
$LN22@qt_static_:
; Line 214
	cmp	DWORD PTR _c$[rsp], 1
	jne	$LN28@qt_static_
; Line 215
	mov	rax, QWORD PTR _o$[rsp]
	mov	QWORD PTR _t$1[rsp], rax
; Line 217
	mov	eax, 8
	imul	rax, rax, 0
	mov	rcx, QWORD PTR _a$[rsp]
	mov	rax, QWORD PTR [rcx+rax]
	mov	QWORD PTR _v$2[rsp], rax
; Line 218
	mov	eax, DWORD PTR _id$[rsp]
	mov	DWORD PTR tv197[rsp], eax
	cmp	DWORD PTR tv197[rsp], 15
	ja	$LN4@qt_static_
	movsxd	rax, DWORD PTR tv197[rsp]
	lea	rcx, OFFSET FLAT:__ImageBase
	mov	eax, DWORD PTR $LN82@qt_static_[rcx+rax*4]
	add	rax, rcx
	jmp	rax
$LN30@qt_static_:
; Line 219
	mov	rcx, QWORD PTR _t$1[rsp]
	call	?addressArea@QHexEdit@@QEAA_NXZ		; QHexEdit::addressArea
	mov	rcx, QWORD PTR _v$2[rsp]
	mov	BYTE PTR [rcx], al
	jmp	$LN4@qt_static_
$LN31@qt_static_:
; Line 220
	lea	rdx, QWORD PTR $T12[rsp]
	mov	rcx, QWORD PTR _t$1[rsp]
	call	?addressAreaColor@QHexEdit@@QEAA?AVQColor@@XZ ; QHexEdit::addressAreaColor
	mov	rdx, rax
	mov	rcx, QWORD PTR _v$2[rsp]
	call	QWORD PTR __imp_??4QColor@@QEAAAEAV0@$$QEAV0@@Z
	jmp	$LN4@qt_static_
$LN32@qt_static_:
; Line 221
	mov	rcx, QWORD PTR _t$1[rsp]
	call	?addressOffset@QHexEdit@@QEAA_JXZ	; QHexEdit::addressOffset
	mov	rcx, QWORD PTR _v$2[rsp]
	mov	QWORD PTR [rcx], rax
	jmp	$LN4@qt_static_
$LN33@qt_static_:
; Line 222
	mov	rcx, QWORD PTR _t$1[rsp]
	call	?addressWidth@QHexEdit@@QEAAHXZ		; QHexEdit::addressWidth
	mov	rcx, QWORD PTR _v$2[rsp]
	mov	DWORD PTR [rcx], eax
	jmp	$LN4@qt_static_
$LN34@qt_static_:
; Line 223
	mov	rcx, QWORD PTR _t$1[rsp]
	call	?asciiArea@QHexEdit@@QEAA_NXZ		; QHexEdit::asciiArea
	mov	rcx, QWORD PTR _v$2[rsp]
	mov	BYTE PTR [rcx], al
	jmp	$LN4@qt_static_
$LN35@qt_static_:
; Line 224
	mov	rcx, QWORD PTR _t$1[rsp]
	call	?bytesPerLine@QHexEdit@@QEAAHXZ		; QHexEdit::bytesPerLine
	mov	rcx, QWORD PTR _v$2[rsp]
	mov	DWORD PTR [rcx], eax
	jmp	$LN4@qt_static_
$LN36@qt_static_:
; Line 225
	mov	rcx, QWORD PTR _t$1[rsp]
	call	?cursorPosition@QHexEdit@@QEAA_JXZ	; QHexEdit::cursorPosition
	mov	rcx, QWORD PTR _v$2[rsp]
	mov	QWORD PTR [rcx], rax
	jmp	$LN4@qt_static_
$LN37@qt_static_:
; Line 226
	lea	rdx, QWORD PTR $T7[rsp]
	mov	rcx, QWORD PTR _t$1[rsp]
	call	?data@QHexEdit@@QEAA?AVQByteArray@@XZ	; QHexEdit::data
	mov	QWORD PTR tv294[rsp], rax
	mov	rdx, QWORD PTR tv294[rsp]
	mov	rcx, QWORD PTR _v$2[rsp]
	call	QWORD PTR __imp_??4QByteArray@@QEAAAEAV0@$$QEAV0@@Z
	lea	rcx, QWORD PTR $T7[rsp]
	call	QWORD PTR __imp_??1QByteArray@@QEAA@XZ
	jmp	$LN4@qt_static_
$LN38@qt_static_:
; Line 227
	mov	rcx, QWORD PTR _t$1[rsp]
	call	?hexCaps@QHexEdit@@QEAA_NXZ		; QHexEdit::hexCaps
	mov	rcx, QWORD PTR _v$2[rsp]
	mov	BYTE PTR [rcx], al
	jmp	$LN4@qt_static_
$LN39@qt_static_:
; Line 228
	mov	rcx, QWORD PTR _t$1[rsp]
	call	?dynamicBytesPerLine@QHexEdit@@QEAA_NXZ	; QHexEdit::dynamicBytesPerLine
	mov	rcx, QWORD PTR _v$2[rsp]
	mov	BYTE PTR [rcx], al
	jmp	$LN4@qt_static_
$LN40@qt_static_:
; Line 229
	mov	rcx, QWORD PTR _t$1[rsp]
	call	?highlighting@QHexEdit@@QEAA_NXZ	; QHexEdit::highlighting
	mov	rcx, QWORD PTR _v$2[rsp]
	mov	BYTE PTR [rcx], al
	jmp	$LN4@qt_static_
$LN41@qt_static_:
; Line 230
	lea	rdx, QWORD PTR $T13[rsp]
	mov	rcx, QWORD PTR _t$1[rsp]
	call	?highlightingColor@QHexEdit@@QEAA?AVQColor@@XZ ; QHexEdit::highlightingColor
	mov	rdx, rax
	mov	rcx, QWORD PTR _v$2[rsp]
	call	QWORD PTR __imp_??4QColor@@QEAAAEAV0@$$QEAV0@@Z
	jmp	SHORT $LN4@qt_static_
$LN42@qt_static_:
; Line 231
	mov	rcx, QWORD PTR _t$1[rsp]
	call	?overwriteMode@QHexEdit@@QEAA_NXZ	; QHexEdit::overwriteMode
	mov	rcx, QWORD PTR _v$2[rsp]
	mov	BYTE PTR [rcx], al
	jmp	SHORT $LN4@qt_static_
$LN43@qt_static_:
; Line 232
	lea	rdx, QWORD PTR $T14[rsp]
	mov	rcx, QWORD PTR _t$1[rsp]
	call	?selectionColor@QHexEdit@@QEAA?AVQColor@@XZ ; QHexEdit::selectionColor
	mov	rdx, rax
	mov	rcx, QWORD PTR _v$2[rsp]
	call	QWORD PTR __imp_??4QColor@@QEAAAEAV0@$$QEAV0@@Z
	jmp	SHORT $LN4@qt_static_
$LN44@qt_static_:
; Line 233
	mov	rcx, QWORD PTR _t$1[rsp]
	call	?isReadOnly@QHexEdit@@QEAA_NXZ		; QHexEdit::isReadOnly
	mov	rcx, QWORD PTR _v$2[rsp]
	mov	BYTE PTR [rcx], al
	jmp	SHORT $LN4@qt_static_
$LN45@qt_static_:
; Line 234
	mov	rcx, QWORD PTR _t$1[rsp]
	call	QWORD PTR __imp_?font@QWidget@@QEBAAEBVQFont@@XZ
	mov	rdx, rax
	mov	rcx, QWORD PTR _v$2[rsp]
	call	QWORD PTR __imp_??4QFont@@QEAAAEAV0@AEBV0@@Z
$LN4@qt_static_:
; Line 237
	jmp	$LN1@qt_static_
$LN28@qt_static_:
	cmp	DWORD PTR _c$[rsp], 2
	jne	$LN1@qt_static_
; Line 238
	mov	rax, QWORD PTR _o$[rsp]
	mov	QWORD PTR _t$4[rsp], rax
; Line 240
	mov	eax, 8
	imul	rax, rax, 0
	mov	rcx, QWORD PTR _a$[rsp]
	mov	rax, QWORD PTR [rcx+rax]
	mov	QWORD PTR _v$3[rsp], rax
; Line 241
	mov	eax, DWORD PTR _id$[rsp]
	mov	DWORD PTR tv258[rsp], eax
	cmp	DWORD PTR tv258[rsp], 15
	ja	$LN1@qt_static_
	movsxd	rax, DWORD PTR tv258[rsp]
	lea	rcx, OFFSET FLAT:__ImageBase
	mov	eax, DWORD PTR $LN81@qt_static_[rcx+rax*4]
	add	rax, rcx
	jmp	rax
$LN49@qt_static_:
; Line 242
	mov	rax, QWORD PTR _v$3[rsp]
	movzx	edx, BYTE PTR [rax]
	mov	rcx, QWORD PTR _t$4[rsp]
	call	?setAddressArea@QHexEdit@@QEAAX_N@Z	; QHexEdit::setAddressArea
	jmp	$LN1@qt_static_
$LN50@qt_static_:
; Line 243
	mov	rdx, QWORD PTR _v$3[rsp]
	mov	rcx, QWORD PTR _t$4[rsp]
	call	?setAddressAreaColor@QHexEdit@@QEAAXAEBVQColor@@@Z ; QHexEdit::setAddressAreaColor
	jmp	$LN1@qt_static_
$LN51@qt_static_:
; Line 244
	mov	rax, QWORD PTR _v$3[rsp]
	mov	rdx, QWORD PTR [rax]
	mov	rcx, QWORD PTR _t$4[rsp]
	call	?setAddressOffset@QHexEdit@@QEAAX_J@Z	; QHexEdit::setAddressOffset
	jmp	$LN1@qt_static_
$LN52@qt_static_:
; Line 245
	mov	rax, QWORD PTR _v$3[rsp]
	mov	edx, DWORD PTR [rax]
	mov	rcx, QWORD PTR _t$4[rsp]
	call	?setAddressWidth@QHexEdit@@QEAAXH@Z	; QHexEdit::setAddressWidth
	jmp	$LN1@qt_static_
$LN53@qt_static_:
; Line 246
	mov	rax, QWORD PTR _v$3[rsp]
	movzx	edx, BYTE PTR [rax]
	mov	rcx, QWORD PTR _t$4[rsp]
	call	?setAsciiArea@QHexEdit@@QEAAX_N@Z	; QHexEdit::setAsciiArea
	jmp	$LN1@qt_static_
$LN54@qt_static_:
; Line 247
	mov	rax, QWORD PTR _v$3[rsp]
	mov	edx, DWORD PTR [rax]
	mov	rcx, QWORD PTR _t$4[rsp]
	call	?setBytesPerLine@QHexEdit@@QEAAXH@Z	; QHexEdit::setBytesPerLine
	jmp	$LN1@qt_static_
$LN55@qt_static_:
; Line 248
	mov	rax, QWORD PTR _v$3[rsp]
	mov	rdx, QWORD PTR [rax]
	mov	rcx, QWORD PTR _t$4[rsp]
	call	?setCursorPosition@QHexEdit@@QEAAX_J@Z	; QHexEdit::setCursorPosition
	jmp	$LN1@qt_static_
$LN56@qt_static_:
; Line 249
	mov	rdx, QWORD PTR _v$3[rsp]
	mov	rcx, QWORD PTR _t$4[rsp]
	call	?setData@QHexEdit@@QEAAXAEBVQByteArray@@@Z ; QHexEdit::setData
	jmp	$LN1@qt_static_
$LN57@qt_static_:
; Line 250
	mov	rax, QWORD PTR _v$3[rsp]
	movzx	edx, BYTE PTR [rax]
	mov	rcx, QWORD PTR _t$4[rsp]
	call	?setHexCaps@QHexEdit@@QEAAX_N@Z		; QHexEdit::setHexCaps
	jmp	$LN1@qt_static_
$LN58@qt_static_:
; Line 251
	mov	rax, QWORD PTR _v$3[rsp]
	movzx	edx, BYTE PTR [rax]
	mov	rcx, QWORD PTR _t$4[rsp]
	call	?setDynamicBytesPerLine@QHexEdit@@QEAAX_N@Z ; QHexEdit::setDynamicBytesPerLine
	jmp	SHORT $LN1@qt_static_
$LN59@qt_static_:
; Line 252
	mov	rax, QWORD PTR _v$3[rsp]
	movzx	edx, BYTE PTR [rax]
	mov	rcx, QWORD PTR _t$4[rsp]
	call	?setHighlighting@QHexEdit@@QEAAX_N@Z	; QHexEdit::setHighlighting
	jmp	SHORT $LN1@qt_static_
$LN60@qt_static_:
; Line 253
	mov	rdx, QWORD PTR _v$3[rsp]
	mov	rcx, QWORD PTR _t$4[rsp]
	call	?setHighlightingColor@QHexEdit@@QEAAXAEBVQColor@@@Z ; QHexEdit::setHighlightingColor
	jmp	SHORT $LN1@qt_static_
$LN61@qt_static_:
; Line 254
	mov	rax, QWORD PTR _v$3[rsp]
	movzx	edx, BYTE PTR [rax]
	mov	rcx, QWORD PTR _t$4[rsp]
	call	?setOverwriteMode@QHexEdit@@QEAAX_N@Z	; QHexEdit::setOverwriteMode
	jmp	SHORT $LN1@qt_static_
$LN62@qt_static_:
; Line 255
	mov	rdx, QWORD PTR _v$3[rsp]
	mov	rcx, QWORD PTR _t$4[rsp]
	call	?setSelectionColor@QHexEdit@@QEAAXAEBVQColor@@@Z ; QHexEdit::setSelectionColor
	jmp	SHORT $LN1@qt_static_
$LN63@qt_static_:
; Line 256
	mov	rax, QWORD PTR _v$3[rsp]
	movzx	edx, BYTE PTR [rax]
	mov	rcx, QWORD PTR _t$4[rsp]
	call	?setReadOnly@QHexEdit@@QEAAX_N@Z	; QHexEdit::setReadOnly
	jmp	SHORT $LN1@qt_static_
$LN64@qt_static_:
; Line 257
	mov	rdx, QWORD PTR _v$3[rsp]
	mov	rcx, QWORD PTR _t$4[rsp]
	call	?setFont@QHexEdit@@QEAAXAEBVQFont@@@Z	; QHexEdit::setFont
$LN1@qt_static_:
; Line 263
	mov	rcx, QWORD PTR __$ArrayPad$[rsp]
	xor	rcx, rsp
	call	__security_check_cookie
	add	rsp, 264				; 00000108H
	ret	0
	npad	2
$LN83@qt_static_:
	DD	$LN10@qt_static_
	DD	$LN11@qt_static_
	DD	$LN12@qt_static_
	DD	$LN13@qt_static_
	DD	$LN14@qt_static_
	DD	$LN15@qt_static_
	DD	$LN16@qt_static_
	DD	$LN17@qt_static_
	DD	$LN18@qt_static_
	DD	$LN19@qt_static_
	DD	$LN20@qt_static_
$LN82@qt_static_:
	DD	$LN30@qt_static_
	DD	$LN31@qt_static_
	DD	$LN32@qt_static_
	DD	$LN33@qt_static_
	DD	$LN34@qt_static_
	DD	$LN35@qt_static_
	DD	$LN36@qt_static_
	DD	$LN37@qt_static_
	DD	$LN38@qt_static_
	DD	$LN39@qt_static_
	DD	$LN40@qt_static_
	DD	$LN41@qt_static_
	DD	$LN42@qt_static_
	DD	$LN43@qt_static_
	DD	$LN44@qt_static_
	DD	$LN45@qt_static_
$LN81@qt_static_:
	DD	$LN49@qt_static_
	DD	$LN50@qt_static_
	DD	$LN51@qt_static_
	DD	$LN52@qt_static_
	DD	$LN53@qt_static_
	DD	$LN54@qt_static_
	DD	$LN55@qt_static_
	DD	$LN56@qt_static_
	DD	$LN57@qt_static_
	DD	$LN58@qt_static_
	DD	$LN59@qt_static_
	DD	$LN60@qt_static_
	DD	$LN61@qt_static_
	DD	$LN62@qt_static_
	DD	$LN63@qt_static_
	DD	$LN64@qt_static_
?qt_static_metacall@QHexEdit@@CAXPEAVQObject@@W4Call@QMetaObject@@HPEAPEAX@Z ENDP ; QHexEdit::qt_static_metacall
_TEXT	ENDS
; Function compile flags: /Odtp
;	COMDAT ?trUtf8@QHexEdit@@SA?AVQString@@PEBD0H@Z
_TEXT	SEGMENT
$T1 = 48
__$ReturnUdt$ = 80
s$ = 88
c$ = 96
n$ = 104
?trUtf8@QHexEdit@@SA?AVQString@@PEBD0H@Z PROC		; QHexEdit::trUtf8, COMDAT
; File F:\qt_projects\qhexedit2-master\src\qhexedit.h
; Line 61
$LN5:
	mov	DWORD PTR [rsp+32], r9d
	mov	QWORD PTR [rsp+24], r8
	mov	QWORD PTR [rsp+16], rdx
	mov	QWORD PTR [rsp+8], rcx
	sub	rsp, 72					; 00000048H
	mov	DWORD PTR $T1[rsp], 0
	mov	eax, DWORD PTR n$[rsp]
	mov	DWORD PTR [rsp+32], eax
	mov	r9, QWORD PTR c$[rsp]
	mov	r8, QWORD PTR s$[rsp]
	mov	rdx, QWORD PTR __$ReturnUdt$[rsp]
	lea	rcx, OFFSET FLAT:?staticMetaObject@QHexEdit@@2UQMetaObject@@B ; QHexEdit::staticMetaObject
	call	QWORD PTR __imp_?tr@QMetaObject@@QEBA?AVQString@@PEBD0H@Z
	mov	eax, DWORD PTR $T1[rsp]
	or	eax, 1
	mov	DWORD PTR $T1[rsp], eax
	mov	rax, QWORD PTR __$ReturnUdt$[rsp]
	add	rsp, 72					; 00000048H
	ret	0
?trUtf8@QHexEdit@@SA?AVQString@@PEBD0H@Z ENDP		; QHexEdit::trUtf8
_TEXT	ENDS
; Function compile flags: /Odtp
;	COMDAT ?tr@QHexEdit@@SA?AVQString@@PEBD0H@Z
_TEXT	SEGMENT
$T1 = 48
__$ReturnUdt$ = 80
s$ = 88
c$ = 96
n$ = 104
?tr@QHexEdit@@SA?AVQString@@PEBD0H@Z PROC		; QHexEdit::tr, COMDAT
; File F:\qt_projects\qhexedit2-master\src\qhexedit.h
; Line 61
$LN5:
	mov	DWORD PTR [rsp+32], r9d
	mov	QWORD PTR [rsp+24], r8
	mov	QWORD PTR [rsp+16], rdx
	mov	QWORD PTR [rsp+8], rcx
	sub	rsp, 72					; 00000048H
	mov	DWORD PTR $T1[rsp], 0
	mov	eax, DWORD PTR n$[rsp]
	mov	DWORD PTR [rsp+32], eax
	mov	r9, QWORD PTR c$[rsp]
	mov	r8, QWORD PTR s$[rsp]
	mov	rdx, QWORD PTR __$ReturnUdt$[rsp]
	lea	rcx, OFFSET FLAT:?staticMetaObject@QHexEdit@@2UQMetaObject@@B ; QHexEdit::staticMetaObject
	call	QWORD PTR __imp_?tr@QMetaObject@@QEBA?AVQString@@PEBD0H@Z
	mov	eax, DWORD PTR $T1[rsp]
	or	eax, 1
	mov	DWORD PTR $T1[rsp], eax
	mov	rax, QWORD PTR __$ReturnUdt$[rsp]
	add	rsp, 72					; 00000048H
	ret	0
?tr@QHexEdit@@SA?AVQString@@PEBD0H@Z ENDP		; QHexEdit::tr
_TEXT	ENDS
; Function compile flags: /Odtp
_TEXT	SEGMENT
this$ = 48
_c$ = 56
_id$ = 64
_a$ = 72
?qt_metacall@QHexEdit@@UEAAHW4Call@QMetaObject@@HPEAPEAX@Z PROC ; QHexEdit::qt_metacall
; File F:\qt_projects\qhexedit2-master\example\Debug\moc_qhexedit.cpp
; Line 289
$LN22:
	mov	QWORD PTR [rsp+32], r9
	mov	DWORD PTR [rsp+24], r8d
	mov	DWORD PTR [rsp+16], edx
	mov	QWORD PTR [rsp+8], rcx
	sub	rsp, 40					; 00000028H
; Line 290
	mov	r9, QWORD PTR _a$[rsp]
	mov	r8d, DWORD PTR _id$[rsp]
	mov	edx, DWORD PTR _c$[rsp]
	mov	rcx, QWORD PTR this$[rsp]
	call	QWORD PTR __imp_?qt_metacall@QAbstractScrollArea@@UEAAHW4Call@QMetaObject@@HPEAPEAX@Z
	mov	DWORD PTR _id$[rsp], eax
; Line 291
	cmp	DWORD PTR _id$[rsp], 0
	jge	SHORT $LN2@qt_metacal
; Line 292
	mov	eax, DWORD PTR _id$[rsp]
	jmp	$LN1@qt_metacal
$LN2@qt_metacal:
; Line 293
	cmp	DWORD PTR _c$[rsp], 0
	jne	SHORT $LN3@qt_metacal
; Line 294
	cmp	DWORD PTR _id$[rsp], 11
	jge	SHORT $LN5@qt_metacal
; Line 295
	mov	r9, QWORD PTR _a$[rsp]
	mov	r8d, DWORD PTR _id$[rsp]
	mov	edx, DWORD PTR _c$[rsp]
	mov	rcx, QWORD PTR this$[rsp]
	call	?qt_static_metacall@QHexEdit@@CAXPEAVQObject@@W4Call@QMetaObject@@HPEAPEAX@Z ; QHexEdit::qt_static_metacall
$LN5@qt_metacal:
; Line 296
	mov	eax, DWORD PTR _id$[rsp]
	sub	eax, 11
	mov	DWORD PTR _id$[rsp], eax
	jmp	$LN4@qt_metacal
$LN3@qt_metacal:
; Line 297
	cmp	DWORD PTR _c$[rsp], 12
	jne	SHORT $LN6@qt_metacal
; Line 298
	cmp	DWORD PTR _id$[rsp], 11
	jge	SHORT $LN8@qt_metacal
; Line 299
	mov	eax, 8
	imul	rax, rax, 0
	mov	rcx, QWORD PTR _a$[rsp]
	mov	rax, QWORD PTR [rcx+rax]
	mov	DWORD PTR [rax], -1
$LN8@qt_metacal:
; Line 300
	mov	eax, DWORD PTR _id$[rsp]
	sub	eax, 11
	mov	DWORD PTR _id$[rsp], eax
; Line 301
	jmp	$LN7@qt_metacal
$LN6@qt_metacal:
; Line 304
	cmp	DWORD PTR _c$[rsp], 1
	je	SHORT $LN11@qt_metacal
	cmp	DWORD PTR _c$[rsp], 2
	je	SHORT $LN11@qt_metacal
	cmp	DWORD PTR _c$[rsp], 3
	je	SHORT $LN11@qt_metacal
	cmp	DWORD PTR _c$[rsp], 11
	jne	SHORT $LN9@qt_metacal
$LN11@qt_metacal:
; Line 305
	mov	r9, QWORD PTR _a$[rsp]
	mov	r8d, DWORD PTR _id$[rsp]
	mov	edx, DWORD PTR _c$[rsp]
	mov	rcx, QWORD PTR this$[rsp]
	call	?qt_static_metacall@QHexEdit@@CAXPEAVQObject@@W4Call@QMetaObject@@HPEAPEAX@Z ; QHexEdit::qt_static_metacall
; Line 306
	mov	eax, DWORD PTR _id$[rsp]
	sub	eax, 16
	mov	DWORD PTR _id$[rsp], eax
	jmp	SHORT $LN10@qt_metacal
$LN9@qt_metacal:
; Line 307
	cmp	DWORD PTR _c$[rsp], 4
	jne	SHORT $LN12@qt_metacal
; Line 308
	mov	eax, DWORD PTR _id$[rsp]
	sub	eax, 16
	mov	DWORD PTR _id$[rsp], eax
	jmp	SHORT $LN13@qt_metacal
$LN12@qt_metacal:
; Line 309
	cmp	DWORD PTR _c$[rsp], 5
	jne	SHORT $LN14@qt_metacal
; Line 310
	mov	eax, DWORD PTR _id$[rsp]
	sub	eax, 16
	mov	DWORD PTR _id$[rsp], eax
	jmp	SHORT $LN15@qt_metacal
$LN14@qt_metacal:
; Line 311
	cmp	DWORD PTR _c$[rsp], 6
	jne	SHORT $LN16@qt_metacal
; Line 312
	mov	eax, DWORD PTR _id$[rsp]
	sub	eax, 16
	mov	DWORD PTR _id$[rsp], eax
	jmp	SHORT $LN17@qt_metacal
$LN16@qt_metacal:
; Line 313
	cmp	DWORD PTR _c$[rsp], 7
	jne	SHORT $LN18@qt_metacal
; Line 314
	mov	eax, DWORD PTR _id$[rsp]
	sub	eax, 16
	mov	DWORD PTR _id$[rsp], eax
	jmp	SHORT $LN19@qt_metacal
$LN18@qt_metacal:
; Line 315
	cmp	DWORD PTR _c$[rsp], 8
	jne	SHORT $LN20@qt_metacal
; Line 316
	mov	eax, DWORD PTR _id$[rsp]
	sub	eax, 16
	mov	DWORD PTR _id$[rsp], eax
$LN20@qt_metacal:
$LN19@qt_metacal:
$LN17@qt_metacal:
$LN15@qt_metacal:
$LN13@qt_metacal:
$LN10@qt_metacal:
$LN7@qt_metacal:
$LN4@qt_metacal:
; Line 319
	mov	eax, DWORD PTR _id$[rsp]
$LN1@qt_metacal:
; Line 320
	add	rsp, 40					; 00000028H
	ret	0
?qt_metacall@QHexEdit@@UEAAHW4Call@QMetaObject@@HPEAPEAX@Z ENDP ; QHexEdit::qt_metacall
_TEXT	ENDS
; Function compile flags: /Odtp
_TEXT	SEGMENT
this$ = 48
_clname$ = 56
?qt_metacast@QHexEdit@@UEAAPEAXPEBD@Z PROC		; QHexEdit::qt_metacast
; File F:\qt_projects\qhexedit2-master\example\Debug\moc_qhexedit.cpp
; Line 281
$LN5:
	mov	QWORD PTR [rsp+16], rdx
	mov	QWORD PTR [rsp+8], rcx
	sub	rsp, 40					; 00000028H
; Line 282
	cmp	QWORD PTR _clname$[rsp], 0
	jne	SHORT $LN2@qt_metacas
	xor	eax, eax
	jmp	SHORT $LN1@qt_metacas
$LN2@qt_metacas:
; Line 283
	lea	rdx, OFFSET FLAT:?qt_meta_stringdata_QHexEdit@@3Uqt_meta_stringdata_QHexEdit_t@@B+768
	mov	rcx, QWORD PTR _clname$[rsp]
	call	strcmp
	test	eax, eax
	jne	SHORT $LN3@qt_metacas
; Line 284
	mov	rax, QWORD PTR this$[rsp]
	jmp	SHORT $LN1@qt_metacas
$LN3@qt_metacas:
; Line 285
	mov	rdx, QWORD PTR _clname$[rsp]
	mov	rcx, QWORD PTR this$[rsp]
	call	QWORD PTR __imp_?qt_metacast@QAbstractScrollArea@@UEAAPEAXPEBD@Z
$LN1@qt_metacas:
; Line 286
	add	rsp, 40					; 00000028H
	ret	0
?qt_metacast@QHexEdit@@UEAAPEAXPEBD@Z ENDP		; QHexEdit::qt_metacast
_TEXT	ENDS
; Function compile flags: /Odtp
_TEXT	SEGMENT
tv82 = 32
this$ = 64
?metaObject@QHexEdit@@UEBAPEBUQMetaObject@@XZ PROC	; QHexEdit::metaObject
; File F:\qt_projects\qhexedit2-master\example\Debug\moc_qhexedit.cpp
; Line 276
$LN5:
	mov	QWORD PTR [rsp+8], rcx
	sub	rsp, 56					; 00000038H
; Line 277
	mov	rax, QWORD PTR this$[rsp]
	add	rax, 8
	mov	rcx, rax
	call	??C?$QScopedPointer@VQObjectData@@U?$QScopedPointerDeleter@VQObjectData@@@@@@QEBAPEAVQObjectData@@XZ ; QScopedPointer<QObjectData,QScopedPointerDeleter<QObjectData> >::operator->
	cmp	QWORD PTR [rax+40], 0
	je	SHORT $LN3@metaObject
	mov	rax, QWORD PTR this$[rsp]
	add	rax, 8
	mov	rcx, rax
	call	??C?$QScopedPointer@VQObjectData@@U?$QScopedPointerDeleter@VQObjectData@@@@@@QEBAPEAVQObjectData@@XZ ; QScopedPointer<QObjectData,QScopedPointerDeleter<QObjectData> >::operator->
	mov	rcx, rax
	call	QWORD PTR __imp_?dynamicMetaObject@QObjectData@@QEBAPEAUQMetaObject@@XZ
	mov	QWORD PTR tv82[rsp], rax
	jmp	SHORT $LN4@metaObject
$LN3@metaObject:
	lea	rax, OFFSET FLAT:?staticMetaObject@QHexEdit@@2UQMetaObject@@B ; QHexEdit::staticMetaObject
	mov	QWORD PTR tv82[rsp], rax
$LN4@metaObject:
	mov	rax, QWORD PTR tv82[rsp]
; Line 278
	add	rsp, 56					; 00000038H
	ret	0
?metaObject@QHexEdit@@UEBAPEBUQMetaObject@@XZ ENDP	; QHexEdit::metaObject
_TEXT	ENDS
; Function compile flags: /Odtp
;	COMDAT ??C?$QScopedPointer@VQObjectData@@U?$QScopedPointerDeleter@VQObjectData@@@@@@QEBAPEAVQObjectData@@XZ
_TEXT	SEGMENT
this$ = 8
??C?$QScopedPointer@VQObjectData@@U?$QScopedPointerDeleter@VQObjectData@@@@@@QEBAPEAVQObjectData@@XZ PROC ; QScopedPointer<QObjectData,QScopedPointerDeleter<QObjectData> >::operator->, COMDAT
; File F:\QT_SW\5.12.4\MSVC2017_64\include\QtCore\qscopedpointer.h
; Line 117
	mov	QWORD PTR [rsp+8], rcx
; Line 118
	mov	rax, QWORD PTR this$[rsp]
	mov	rax, QWORD PTR [rax]
; Line 119
	ret	0
??C?$QScopedPointer@VQObjectData@@U?$QScopedPointerDeleter@VQObjectData@@@@@@QEBAPEAVQObjectData@@XZ ENDP ; QScopedPointer<QObjectData,QScopedPointerDeleter<QObjectData> >::operator->
_TEXT	ENDS
; Function compile flags: /Odtp
;	COMDAT ?__empty_global_delete@@YAXPEAX_K@Z
_TEXT	SEGMENT
__formal$ = 8
__formal$ = 16
?__empty_global_delete@@YAXPEAX_K@Z PROC		; __empty_global_delete, COMDAT
; File F:\qt_projects\qhexedit2-master\example\Debug\moc_qhexedit.cpp
; Line 350
	mov	QWORD PTR [rsp+16], rdx
	mov	QWORD PTR [rsp+8], rcx
	ret	0
?__empty_global_delete@@YAXPEAX_K@Z ENDP		; __empty_global_delete
_TEXT	ENDS
; Function compile flags: /Odtp
;	COMDAT ?__empty_global_delete@@YAXPEAX@Z
_TEXT	SEGMENT
__formal$ = 8
?__empty_global_delete@@YAXPEAX@Z PROC			; __empty_global_delete, COMDAT
; File F:\qt_projects\qhexedit2-master\example\Debug\moc_qhexedit.cpp
; Line 350
	mov	QWORD PTR [rsp+8], rcx
	ret	0
?__empty_global_delete@@YAXPEAX@Z ENDP			; __empty_global_delete
_TEXT	ENDS
END
