; Listing generated by Microsoft (R) Optimizing Compiler Version 19.23.28105.4 

include listing.inc

INCLUDELIB LIBCMTD
INCLUDELIB OLDNAMES

CONST	SEGMENT
$SG189593 DB	'F:\QT_SW\5.12.4\MSVC2017_64\include\QtCore\qvector.h', 00H
	ORG $+3
$SG189594 DB	'asize >= 0 && asize <= aalloc', 00H
	ORG $+2
$SG189602 DB	'F:\QT_SW\5.12.4\MSVC2017_64\include\QtCore\qvector.h', 00H
	ORG $+3
$SG189603 DB	'x->ref.isSharable() || options.testFlag(QArrayData::Unsh'
	DB	'arable)', 00H
$SG189604 DB	'F:\QT_SW\5.12.4\MSVC2017_64\include\QtCore\qvector.h', 00H
	ORG $+3
$SG189605 DB	'!x->ref.isStatic()', 00H
	ORG $+1
$SG185869 DB	'%s', 00H
	ORG $+1
$SG189618 DB	'F:\QT_SW\5.12.4\MSVC2017_64\include\QtCore\qvector.h', 00H
	ORG $+3
$SG189619 DB	'int(d->alloc) == aalloc', 00H
$SG189620 DB	'F:\QT_SW\5.12.4\MSVC2017_64\include\QtCore\qvector.h', 00H
	ORG $+3
$SG189621 DB	'isDetached()', 00H
	ORG $+3
$SG189622 DB	'F:\QT_SW\5.12.4\MSVC2017_64\include\QtCore\qvector.h', 00H
	ORG $+3
$SG189623 DB	'x == d', 00H
	ORG $+1
$SG189631 DB	'F:\QT_SW\5.12.4\MSVC2017_64\include\QtCore\qvector.h', 00H
	ORG $+3
$SG189632 DB	'd->data()', 00H
	ORG $+2
$SG196262 DB	'%s', 00H
	ORG $+1
$SG189633 DB	'F:\QT_SW\5.12.4\MSVC2017_64\include\QtCore\qvector.h', 00H
	ORG $+3
$SG189634 DB	'uint(d->size) <= d->alloc', 00H
	ORG $+6
$SG189635 DB	'F:\QT_SW\5.12.4\MSVC2017_64\include\QtCore\qvector.h', 00H
	ORG $+3
$SG189636 DB	'd != Data::unsharableEmpty()', 00H
	ORG $+3
$SG189637 DB	'F:\QT_SW\5.12.4\MSVC2017_64\include\QtCore\qvector.h', 00H
	ORG $+3
$SG189638 DB	'aalloc ? d != Data::sharedNull() : d == Data::sharedNull'
	DB	'()', 00H
	ORG $+5
$SG189639 DB	'F:\QT_SW\5.12.4\MSVC2017_64\include\QtCore\qvector.h', 00H
	ORG $+3
$SG189640 DB	'd->alloc >= uint(aalloc)', 00H
	ORG $+7
$SG189641 DB	'F:\QT_SW\5.12.4\MSVC2017_64\include\QtCore\qvector.h', 00H
	ORG $+3
$SG189642 DB	'd->size == asize', 00H
	ORG $+7
?qt_meta_stringdata_SearchDialog@@3Uqt_meta_stringdata_SearchDialog_t@@B DD 0ffffffffH ; qt_meta_stringdata_SearchDialog
	DD	0cH
	DD	00H
	ORG $+4
	DQ	0000000000000078H
	DD	0ffffffffH
	DD	011H
	DD	00H
	ORG $+4
	DQ	000000000000006dH
	DD	0ffffffffH
	DD	00H
	DD	00H
	ORG $+4
	DQ	0000000000000067H
	DD	0ffffffffH
	DD	014H
	DD	00H
	ORG $+4
	DQ	0000000000000050H
	DD	0ffffffffH
	DD	017H
	DD	00H
	ORG $+4
	DQ	000000000000004dH
	DB	053H
	DB	065H
	DB	061H
	DB	072H
	DB	063H
	DB	068H
	DB	044H
	DB	069H
	DB	061H
	DB	06cH
	DB	06fH
	DB	067H
	DB	00H
	DB	06fH
	DB	06eH
	DB	05fH
	DB	070H
	DB	062H
	DB	046H
	DB	069H
	DB	06eH
	DB	064H
	DB	05fH
	DB	063H
	DB	06cH
	DB	069H
	DB	063H
	DB	06bH
	DB	065H
	DB	064H
	DB	00H
	DB	00H
	DB	06fH
	DB	06eH
	DB	05fH
	DB	070H
	DB	062H
	DB	052H
	DB	065H
	DB	070H
	DB	06cH
	DB	061H
	DB	063H
	DB	065H
	DB	05fH
	DB	063H
	DB	06cH
	DB	069H
	DB	063H
	DB	06bH
	DB	065H
	DB	064H
	DB	00H
	DB	06fH
	DB	06eH
	DB	05fH
	DB	070H
	DB	062H
	DB	052H
	DB	065H
	DB	070H
	DB	06cH
	DB	061H
	DB	063H
	DB	065H
	DB	041H
	DB	06cH
	DB	06cH
	DB	05fH
	DB	063H
	DB	06cH
	DB	069H
	DB	063H
	DB	06bH
	DB	065H
	DB	064H
	DB	00H
	ORG $+3
	ORG $+8
?qt_meta_data_SearchDialog@@3QBIB DD 08H		; qt_meta_data_SearchDialog
	DD	00H
	DD	00H
	DD	00H
	DD	03H
	DD	0eH
	DD	00H
	DD	00H
	DD	00H
	DD	00H
	DD	00H
	DD	00H
	DD	00H
	DD	00H
	DD	01H
	DD	00H
	DD	01dH
	DD	02H
	DD	08H
	DD	03H
	DD	00H
	DD	01eH
	DD	02H
	DD	08H
	DD	04H
	DD	00H
	DD	01fH
	DD	02H
	DD	08H
	DD	02bH
	DD	02bH
	DD	02bH
	DD	00H
	ORG $+4
$SG190456 DB	'F:\QT_SW\5.12.4\MSVC2017_64\include\QtCore\qmetatype.h', 00H
	ORG $+1
$SG190457 DB	'qRegisterNormalizedMetaType was called with a not normal'
	DB	'ized type name, please call qRegisterMetaType instead.', 00H
	ORG $+1
$SG190458 DB	'qRegisterNormalizedMetaType', 00H
	ORG $+4
$SG190783 DB	'F:\QT_SW\5.12.4\MSVC2017_64\include\QtCore\qmetatype.h', 00H
	ORG $+9
$SG190784 DB	'qRegisterNormalizedMetaType was called with a not normal'
	DB	'ized type name, please call qRegisterMetaType instead.', 00H
	ORG $+1
$SG190785 DB	'qRegisterNormalizedMetaType', 00H
	ORG $+4
$SG191110 DB	'F:\QT_SW\5.12.4\MSVC2017_64\include\QtCore\qmetatype.h', 00H
	ORG $+9
$SG191111 DB	'qRegisterNormalizedMetaType was called with a not normal'
	DB	'ized type name, please call qRegisterMetaType instead.', 00H
	ORG $+1
$SG191112 DB	'qRegisterNormalizedMetaType', 00H
	ORG $+4
$SG191926 DB	'F:\QT_SW\5.12.4\MSVC2017_64\include\QtCore\qmetatype.h', 00H
	ORG $+9
$SG191927 DB	'qRegisterNormalizedMetaType was called with a not normal'
	DB	'ized type name, please call qRegisterMetaType instead.', 00H
	ORG $+1
$SG191928 DB	'qRegisterNormalizedMetaType', 00H
	ORG $+4
$SG192292 DB	'F:\QT_SW\5.12.4\MSVC2017_64\include\QtCore\qmetatype.h', 00H
	ORG $+9
$SG192293 DB	'qRegisterNormalizedMetaType was called with a not normal'
	DB	'ized type name, please call qRegisterMetaType instead.', 00H
	ORG $+1
$SG192294 DB	'qRegisterNormalizedMetaType', 00H
	ORG $+4
$SG192619 DB	'F:\QT_SW\5.12.4\MSVC2017_64\include\QtCore\qmetatype.h', 00H
	ORG $+9
$SG192620 DB	'qRegisterNormalizedMetaType was called with a not normal'
	DB	'ized type name, please call qRegisterMetaType instead.', 00H
	ORG $+1
$SG192621 DB	'qRegisterNormalizedMetaType', 00H
	ORG $+4
$SG192946 DB	'F:\QT_SW\5.12.4\MSVC2017_64\include\QtCore\qmetatype.h', 00H
	ORG $+9
$SG192947 DB	'qRegisterNormalizedMetaType was called with a not normal'
	DB	'ized type name, please call qRegisterMetaType instead.', 00H
	ORG $+1
$SG192948 DB	'qRegisterNormalizedMetaType', 00H
	ORG $+4
$SG193273 DB	'F:\QT_SW\5.12.4\MSVC2017_64\include\QtCore\qmetatype.h', 00H
	ORG $+9
$SG193274 DB	'qRegisterNormalizedMetaType was called with a not normal'
	DB	'ized type name, please call qRegisterMetaType instead.', 00H
	ORG $+1
$SG193275 DB	'qRegisterNormalizedMetaType', 00H
	ORG $+4
$SG193625 DB	'F:\QT_SW\5.12.4\MSVC2017_64\include\QtCore\qmetatype.h', 00H
	ORG $+9
$SG193626 DB	'qRegisterNormalizedMetaType was called with a not normal'
	DB	'ized type name, please call qRegisterMetaType instead.', 00H
	ORG $+1
$SG193627 DB	'qRegisterNormalizedMetaType', 00H
	ORG $+4
$SG193952 DB	'F:\QT_SW\5.12.4\MSVC2017_64\include\QtCore\qmetatype.h', 00H
	ORG $+9
$SG193953 DB	'qRegisterNormalizedMetaType was called with a not normal'
	DB	'ized type name, please call qRegisterMetaType instead.', 00H
	ORG $+1
$SG193954 DB	'qRegisterNormalizedMetaType', 00H
	ORG $+4
$SG185868 DB	'containers incompatible for swap', 00H
	ORG $+15
$SG185870 DB	'C:\Program Files (x86)\Microsoft Visual Studio\2019\Comm'
	DB	'unity\VC\Tools\MSVC\14.23.28105\include\xmemory', 00H
	ORG $+8
$SG185871 DB	'C', 00H, ':', 00H, '\', 00H, 'P', 00H, 'r', 00H, 'o', 00H
	DB	'g', 00H, 'r', 00H, 'a', 00H, 'm', 00H, ' ', 00H, 'F', 00H, 'i'
	DB	00H, 'l', 00H, 'e', 00H, 's', 00H, ' ', 00H, '(', 00H, 'x', 00H
	DB	'8', 00H, '6', 00H, ')', 00H, '\', 00H, 'M', 00H, 'i', 00H, 'c'
	DB	00H, 'r', 00H, 'o', 00H, 's', 00H, 'o', 00H, 'f', 00H, 't', 00H
	DB	' ', 00H, 'V', 00H, 'i', 00H, 's', 00H, 'u', 00H, 'a', 00H, 'l'
	DB	00H, ' ', 00H, 'S', 00H, 't', 00H, 'u', 00H, 'd', 00H, 'i', 00H
	DB	'o', 00H, '\', 00H, '2', 00H, '0', 00H, '1', 00H, '9', 00H, '\'
	DB	00H, 'C', 00H, 'o', 00H, 'm', 00H, 'm', 00H, 'u', 00H, 'n', 00H
	DB	'i', 00H, 't', 00H, 'y', 00H, '\', 00H, 'V', 00H, 'C', 00H, '\'
	DB	00H, 'T', 00H, 'o', 00H, 'o', 00H, 'l', 00H, 's', 00H, '\', 00H
	DB	'M', 00H, 'S', 00H, 'V', 00H, 'C', 00H, '\', 00H, '1', 00H, '4'
	DB	00H, '.', 00H, '2', 00H, '3', 00H, '.', 00H, '2', 00H, '8', 00H
	DB	'1', 00H, '0', 00H, '5', 00H, '\', 00H, 'i', 00H, 'n', 00H, 'c'
	DB	00H, 'l', 00H, 'u', 00H, 'd', 00H, 'e', 00H, '\', 00H, 'x', 00H
	DB	'm', 00H, 'e', 00H, 'm', 00H, 'o', 00H, 'r', 00H, 'y', 00H, 00H
	DB	00H
$SG185872 DB	's', 00H, 't', 00H, 'd', 00H, ':', 00H, ':', 00H, '_', 00H
	DB	'P', 00H, 'o', 00H, 'c', 00H, 's', 00H, 00H, 00H
	ORG $+10
$SG185873 DB	'"', 00H, 'c', 00H, 'o', 00H, 'n', 00H, 't', 00H, 'a', 00H
	DB	'i', 00H, 'n', 00H, 'e', 00H, 'r', 00H, 's', 00H, ' ', 00H, 'i'
	DB	00H, 'n', 00H, 'c', 00H, 'o', 00H, 'm', 00H, 'p', 00H, 'a', 00H
	DB	't', 00H, 'i', 00H, 'b', 00H, 'l', 00H, 'e', 00H, ' ', 00H, 'f'
	DB	00H, 'o', 00H, 'r', 00H, ' ', 00H, 's', 00H, 'w', 00H, 'a', 00H
	DB	'p', 00H, '"', 00H, 00H, 00H
	ORG $+2
$SG194279 DB	'F:\QT_SW\5.12.4\MSVC2017_64\include\QtCore\qmetatype.h', 00H
	ORG $+1
$SG194280 DB	'qRegisterNormalizedMetaType was called with a not normal'
	DB	'ized type name, please call qRegisterMetaType instead.', 00H
	ORG $+1
$SG194281 DB	'qRegisterNormalizedMetaType', 00H
	ORG $+4
$SG194606 DB	'F:\QT_SW\5.12.4\MSVC2017_64\include\QtCore\qmetatype.h', 00H
	ORG $+9
$SG194607 DB	'qRegisterNormalizedMetaType was called with a not normal'
	DB	'ized type name, please call qRegisterMetaType instead.', 00H
	ORG $+1
$SG194608 DB	'qRegisterNormalizedMetaType', 00H
	ORG $+4
$SG186656 DB	'F:\QT_SW\5.12.4\MSVC2017_64\include\QtCore\qmetatype.h', 00H
	ORG $+9
$SG186657 DB	'qRegisterNormalizedMetaType was called with a not normal'
	DB	'ized type name, please call qRegisterMetaType instead.', 00H
	ORG $+1
$SG186658 DB	'qRegisterNormalizedMetaType', 00H
	ORG $+4
$SG196261 DB	'invalid argument', 00H
	ORG $+15
$SG196263 DB	'C:\Program Files (x86)\Microsoft Visual Studio\2019\Comm'
	DB	'unity\VC\Tools\MSVC\14.23.28105\include\xmemory', 00H
	ORG $+8
$SG196264 DB	'C', 00H, ':', 00H, '\', 00H, 'P', 00H, 'r', 00H, 'o', 00H
	DB	'g', 00H, 'r', 00H, 'a', 00H, 'm', 00H, ' ', 00H, 'F', 00H, 'i'
	DB	00H, 'l', 00H, 'e', 00H, 's', 00H, ' ', 00H, '(', 00H, 'x', 00H
	DB	'8', 00H, '6', 00H, ')', 00H, '\', 00H, 'M', 00H, 'i', 00H, 'c'
	DB	00H, 'r', 00H, 'o', 00H, 's', 00H, 'o', 00H, 'f', 00H, 't', 00H
	DB	' ', 00H, 'V', 00H, 'i', 00H, 's', 00H, 'u', 00H, 'a', 00H, 'l'
	DB	00H, ' ', 00H, 'S', 00H, 't', 00H, 'u', 00H, 'd', 00H, 'i', 00H
	DB	'o', 00H, '\', 00H, '2', 00H, '0', 00H, '1', 00H, '9', 00H, '\'
	DB	00H, 'C', 00H, 'o', 00H, 'm', 00H, 'm', 00H, 'u', 00H, 'n', 00H
	DB	'i', 00H, 't', 00H, 'y', 00H, '\', 00H, 'V', 00H, 'C', 00H, '\'
	DB	00H, 'T', 00H, 'o', 00H, 'o', 00H, 'l', 00H, 's', 00H, '\', 00H
	DB	'M', 00H, 'S', 00H, 'V', 00H, 'C', 00H, '\', 00H, '1', 00H, '4'
	DB	00H, '.', 00H, '2', 00H, '3', 00H, '.', 00H, '2', 00H, '8', 00H
	DB	'1', 00H, '0', 00H, '5', 00H, '\', 00H, 'i', 00H, 'n', 00H, 'c'
	DB	00H, 'l', 00H, 'u', 00H, 'd', 00H, 'e', 00H, '\', 00H, 'x', 00H
	DB	'm', 00H, 'e', 00H, 'm', 00H, 'o', 00H, 'r', 00H, 'y', 00H, 00H
	DB	00H
$SG196265 DB	's', 00H, 't', 00H, 'd', 00H, ':', 00H, ':', 00H, '_', 00H
	DB	'A', 00H, 'l', 00H, 'l', 00H, 'o', 00H, 'c', 00H, 'a', 00H, 't'
	DB	00H, 'e', 00H, '_', 00H, 'm', 00H, 'a', 00H, 'n', 00H, 'u', 00H
	DB	'a', 00H, 'l', 00H, 'l', 00H, 'y', 00H, '_', 00H, 'v', 00H, 'e'
	DB	00H, 'c', 00H, 't', 00H, 'o', 00H, 'r', 00H, '_', 00H, 'a', 00H
	DB	'l', 00H, 'i', 00H, 'g', 00H, 'n', 00H, 'e', 00H, 'd', 00H, 00H
	DB	00H
	ORG $+2
$SG196266 DB	'"', 00H, 'i', 00H, 'n', 00H, 'v', 00H, 'a', 00H, 'l', 00H
	DB	'i', 00H, 'd', 00H, ' ', 00H, 'a', 00H, 'r', 00H, 'g', 00H, 'u'
	DB	00H, 'm', 00H, 'e', 00H, 'n', 00H, 't', 00H, '"', 00H, 00H, 00H
CONST	ENDS
PUBLIC	?__empty_global_delete@@YAXPEAX@Z		; __empty_global_delete
PUBLIC	?__empty_global_delete@@YAXPEAX_K@Z		; __empty_global_delete
PUBLIC	??C?$QScopedPointer@VQObjectData@@U?$QScopedPointerDeleter@VQObjectData@@@@@@QEBAPEAVQObjectData@@XZ ; QScopedPointer<QObjectData,QScopedPointerDeleter<QObjectData> >::operator->
PUBLIC	?tr@QHexEdit@@SA?AVQString@@PEBD0H@Z		; QHexEdit::tr
PUBLIC	?trUtf8@QHexEdit@@SA?AVQString@@PEBD0H@Z	; QHexEdit::trUtf8
PUBLIC	??_FQHexEdit@@QEAAXXZ				; QHexEdit::`default constructor closure'
PUBLIC	?metaObject@SearchDialog@@UEBAPEBUQMetaObject@@XZ ; SearchDialog::metaObject
PUBLIC	?qt_metacast@SearchDialog@@UEAAPEAXPEBD@Z	; SearchDialog::qt_metacast
PUBLIC	?qt_metacall@SearchDialog@@UEAAHW4Call@QMetaObject@@HPEAPEAX@Z ; SearchDialog::qt_metacall
PUBLIC	?qt_static_metacall@SearchDialog@@CAXPEAVQObject@@W4Call@QMetaObject@@HPEAPEAX@Z ; SearchDialog::qt_static_metacall
PUBLIC	?staticMetaObject@SearchDialog@@2UQMetaObject@@B ; SearchDialog::staticMetaObject
EXTRN	strcmp:PROC
EXTRN	__imp_?tr@QMetaObject@@QEBA?AVQString@@PEBD0H@Z:PROC
EXTRN	__imp_?dynamicMetaObject@QObjectData@@QEBAPEAUQMetaObject@@XZ:PROC
EXTRN	__imp_?qt_metacast@QDialog@@UEAAPEAXPEBD@Z:PROC
EXTRN	__imp_?qt_metacall@QDialog@@UEAAHW4Call@QMetaObject@@HPEAPEAX@Z:PROC
EXTRN	??0QHexEdit@@QEAA@PEAVQWidget@@@Z:PROC		; QHexEdit::QHexEdit
EXTRN	?on_pbFind_clicked@SearchDialog@@AEAAXXZ:PROC	; SearchDialog::on_pbFind_clicked
EXTRN	?on_pbReplace_clicked@SearchDialog@@AEAAXXZ:PROC ; SearchDialog::on_pbReplace_clicked
EXTRN	?on_pbReplaceAll_clicked@SearchDialog@@AEAAXXZ:PROC ; SearchDialog::on_pbReplaceAll_clicked
EXTRN	__imp_?staticMetaObject@QDialog@@2UQMetaObject@@B:BYTE
EXTRN	?staticMetaObject@QHexEdit@@2UQMetaObject@@B:BYTE ; QHexEdit::staticMetaObject
_BSS	SEGMENT
?staticMetaObject@SearchDialog@@2UQMetaObject@@B DB 030H DUP (?) ; SearchDialog::staticMetaObject
_BSS	ENDS
;	COMDAT pdata
pdata	SEGMENT
$pdata$?tr@QHexEdit@@SA?AVQString@@PEBD0H@Z DD imagerel $LN5
	DD	imagerel $LN5+89
	DD	imagerel $unwind$?tr@QHexEdit@@SA?AVQString@@PEBD0H@Z
pdata	ENDS
;	COMDAT pdata
pdata	SEGMENT
$pdata$?trUtf8@QHexEdit@@SA?AVQString@@PEBD0H@Z DD imagerel $LN5
	DD	imagerel $LN5+89
	DD	imagerel $unwind$?trUtf8@QHexEdit@@SA?AVQString@@PEBD0H@Z
pdata	ENDS
;	COMDAT pdata
pdata	SEGMENT
$pdata$??_FQHexEdit@@QEAAXXZ DD imagerel $LN3
	DD	imagerel $LN3+26
	DD	imagerel $unwind$??_FQHexEdit@@QEAAXXZ
pdata	ENDS
pdata	SEGMENT
$pdata$?metaObject@SearchDialog@@UEBAPEBUQMetaObject@@XZ DD imagerel $LN5
	DD	imagerel $LN5+88
	DD	imagerel $unwind$?metaObject@SearchDialog@@UEBAPEBUQMetaObject@@XZ
$pdata$?qt_metacast@SearchDialog@@UEAAPEAXPEBD@Z DD imagerel $LN5
	DD	imagerel $LN5+75
	DD	imagerel $unwind$?qt_metacast@SearchDialog@@UEAAPEAXPEBD@Z
$pdata$?qt_metacall@SearchDialog@@UEAAHW4Call@QMetaObject@@HPEAPEAX@Z DD imagerel $LN9
	DD	imagerel $LN9+174
	DD	imagerel $unwind$?qt_metacall@SearchDialog@@UEAAHW4Call@QMetaObject@@HPEAPEAX@Z
$pdata$?qt_static_metacall@SearchDialog@@CAXPEAVQObject@@W4Call@QMetaObject@@HPEAPEAX@Z DD imagerel $LN10
	DD	imagerel $LN10+110
	DD	imagerel $unwind$?qt_static_metacall@SearchDialog@@CAXPEAVQObject@@W4Call@QMetaObject@@HPEAPEAX@Z
pdata	ENDS
CRT$XCU	SEGMENT
??staticMetaObject$initializer$@SearchDialog@@2P6AXXZEA@@3P6AXXZEA DQ FLAT:??__E?staticMetaObject@SearchDialog@@2UQMetaObject@@B@@YAXXZ ; ??staticMetaObject$initializer$@SearchDialog@@2P6AXXZEA@@3P6AXXZEA
CRT$XCU	ENDS
xdata	SEGMENT
$unwind$?metaObject@SearchDialog@@UEBAPEBUQMetaObject@@XZ DD 010901H
	DD	06209H
$unwind$?qt_metacast@SearchDialog@@UEAAPEAXPEBD@Z DD 010e01H
	DD	0420eH
$unwind$?qt_metacall@SearchDialog@@UEAAHW4Call@QMetaObject@@HPEAPEAX@Z DD 011701H
	DD	04217H
$unwind$?qt_static_metacall@SearchDialog@@CAXPEAVQObject@@W4Call@QMetaObject@@HPEAPEAX@Z DD 011701H
	DD	06217H
xdata	ENDS
;	COMDAT xdata
xdata	SEGMENT
$unwind$??_FQHexEdit@@QEAAXXZ DD 010901H
	DD	04209H
xdata	ENDS
;	COMDAT xdata
xdata	SEGMENT
$unwind$?trUtf8@QHexEdit@@SA?AVQString@@PEBD0H@Z DD 011801H
	DD	08218H
xdata	ENDS
;	COMDAT xdata
xdata	SEGMENT
$unwind$?tr@QHexEdit@@SA?AVQString@@PEBD0H@Z DD 011801H
	DD	08218H
xdata	ENDS
; Function compile flags: /Odtp
;	COMDAT ??__E?staticMetaObject@SearchDialog@@2UQMetaObject@@B@@YAXXZ
text$di	SEGMENT
??__E?staticMetaObject@SearchDialog@@2UQMetaObject@@B@@YAXXZ PROC ; `dynamic initializer for 'SearchDialog::staticMetaObject'', COMDAT
; File F:\qt_projects\qhexedit2-master\example\Debug\moc_searchdialog.cpp
; Line 88
	mov	rax, QWORD PTR __imp_?staticMetaObject@QDialog@@2UQMetaObject@@B
	mov	QWORD PTR ?staticMetaObject@SearchDialog@@2UQMetaObject@@B, rax
; Line 89
	lea	rax, OFFSET FLAT:?qt_meta_stringdata_SearchDialog@@3Uqt_meta_stringdata_SearchDialog_t@@B
	mov	QWORD PTR ?staticMetaObject@SearchDialog@@2UQMetaObject@@B+8, rax
; Line 90
	lea	rax, OFFSET FLAT:?qt_meta_data_SearchDialog@@3QBIB
	mov	QWORD PTR ?staticMetaObject@SearchDialog@@2UQMetaObject@@B+16, rax
; Line 91
	lea	rax, OFFSET FLAT:?qt_static_metacall@SearchDialog@@CAXPEAVQObject@@W4Call@QMetaObject@@HPEAPEAX@Z ; SearchDialog::qt_static_metacall
	mov	QWORD PTR ?staticMetaObject@SearchDialog@@2UQMetaObject@@B+24, rax
; Line 92
	mov	QWORD PTR ?staticMetaObject@SearchDialog@@2UQMetaObject@@B+32, 0
; Line 93
	mov	QWORD PTR ?staticMetaObject@SearchDialog@@2UQMetaObject@@B+40, 0
	ret	0
??__E?staticMetaObject@SearchDialog@@2UQMetaObject@@B@@YAXXZ ENDP ; `dynamic initializer for 'SearchDialog::staticMetaObject''
text$di	ENDS
; Function compile flags: /Odtp
_TEXT	SEGMENT
tv69 = 32
_t$1 = 40
_o$ = 64
_c$ = 72
_id$ = 80
_a$ = 88
?qt_static_metacall@SearchDialog@@CAXPEAVQObject@@W4Call@QMetaObject@@HPEAPEAX@Z PROC ; SearchDialog::qt_static_metacall
; File F:\qt_projects\qhexedit2-master\example\Debug\moc_searchdialog.cpp
; Line 73
$LN10:
	mov	QWORD PTR [rsp+32], r9
	mov	DWORD PTR [rsp+24], r8d
	mov	DWORD PTR [rsp+16], edx
	mov	QWORD PTR [rsp+8], rcx
	sub	rsp, 56					; 00000038H
; Line 74
	cmp	DWORD PTR _c$[rsp], 0
	jne	SHORT $LN4@qt_static_
; Line 75
	mov	rax, QWORD PTR _o$[rsp]
	mov	QWORD PTR _t$1[rsp], rax
; Line 77
	mov	eax, DWORD PTR _id$[rsp]
	mov	DWORD PTR tv69[rsp], eax
	cmp	DWORD PTR tv69[rsp], 0
	je	SHORT $LN5@qt_static_
	cmp	DWORD PTR tv69[rsp], 1
	je	SHORT $LN6@qt_static_
	cmp	DWORD PTR tv69[rsp], 2
	je	SHORT $LN7@qt_static_
	jmp	SHORT $LN8@qt_static_
$LN5@qt_static_:
; Line 78
	mov	rcx, QWORD PTR _t$1[rsp]
	call	?on_pbFind_clicked@SearchDialog@@AEAAXXZ ; SearchDialog::on_pbFind_clicked
	jmp	SHORT $LN2@qt_static_
$LN6@qt_static_:
; Line 79
	mov	rcx, QWORD PTR _t$1[rsp]
	call	?on_pbReplace_clicked@SearchDialog@@AEAAXXZ ; SearchDialog::on_pbReplace_clicked
	jmp	SHORT $LN2@qt_static_
$LN7@qt_static_:
; Line 80
	mov	rcx, QWORD PTR _t$1[rsp]
	call	?on_pbReplaceAll_clicked@SearchDialog@@AEAAXXZ ; SearchDialog::on_pbReplaceAll_clicked
$LN8@qt_static_:
$LN2@qt_static_:
$LN4@qt_static_:
; Line 85
	add	rsp, 56					; 00000038H
	ret	0
?qt_static_metacall@SearchDialog@@CAXPEAVQObject@@W4Call@QMetaObject@@HPEAPEAX@Z ENDP ; SearchDialog::qt_static_metacall
_TEXT	ENDS
; Function compile flags: /Odtp
_TEXT	SEGMENT
this$ = 48
_c$ = 56
_id$ = 64
_a$ = 72
?qt_metacall@SearchDialog@@UEAAHW4Call@QMetaObject@@HPEAPEAX@Z PROC ; SearchDialog::qt_metacall
; File F:\qt_projects\qhexedit2-master\example\Debug\moc_searchdialog.cpp
; Line 111
$LN9:
	mov	QWORD PTR [rsp+32], r9
	mov	DWORD PTR [rsp+24], r8d
	mov	DWORD PTR [rsp+16], edx
	mov	QWORD PTR [rsp+8], rcx
	sub	rsp, 40					; 00000028H
; Line 112
	mov	r9, QWORD PTR _a$[rsp]
	mov	r8d, DWORD PTR _id$[rsp]
	mov	edx, DWORD PTR _c$[rsp]
	mov	rcx, QWORD PTR this$[rsp]
	call	QWORD PTR __imp_?qt_metacall@QDialog@@UEAAHW4Call@QMetaObject@@HPEAPEAX@Z
	mov	DWORD PTR _id$[rsp], eax
; Line 113
	cmp	DWORD PTR _id$[rsp], 0
	jge	SHORT $LN2@qt_metacal
; Line 114
	mov	eax, DWORD PTR _id$[rsp]
	jmp	SHORT $LN1@qt_metacal
$LN2@qt_metacal:
; Line 115
	cmp	DWORD PTR _c$[rsp], 0
	jne	SHORT $LN3@qt_metacal
; Line 116
	cmp	DWORD PTR _id$[rsp], 3
	jge	SHORT $LN5@qt_metacal
; Line 117
	mov	r9, QWORD PTR _a$[rsp]
	mov	r8d, DWORD PTR _id$[rsp]
	mov	edx, DWORD PTR _c$[rsp]
	mov	rcx, QWORD PTR this$[rsp]
	call	?qt_static_metacall@SearchDialog@@CAXPEAVQObject@@W4Call@QMetaObject@@HPEAPEAX@Z ; SearchDialog::qt_static_metacall
$LN5@qt_metacal:
; Line 118
	mov	eax, DWORD PTR _id$[rsp]
	sub	eax, 3
	mov	DWORD PTR _id$[rsp], eax
	jmp	SHORT $LN4@qt_metacal
$LN3@qt_metacal:
; Line 119
	cmp	DWORD PTR _c$[rsp], 12
	jne	SHORT $LN6@qt_metacal
; Line 120
	cmp	DWORD PTR _id$[rsp], 3
	jge	SHORT $LN7@qt_metacal
; Line 121
	mov	eax, 8
	imul	rax, rax, 0
	mov	rcx, QWORD PTR _a$[rsp]
	mov	rax, QWORD PTR [rcx+rax]
	mov	DWORD PTR [rax], -1
$LN7@qt_metacal:
; Line 122
	mov	eax, DWORD PTR _id$[rsp]
	sub	eax, 3
	mov	DWORD PTR _id$[rsp], eax
$LN6@qt_metacal:
$LN4@qt_metacal:
; Line 124
	mov	eax, DWORD PTR _id$[rsp]
$LN1@qt_metacal:
; Line 125
	add	rsp, 40					; 00000028H
	ret	0
?qt_metacall@SearchDialog@@UEAAHW4Call@QMetaObject@@HPEAPEAX@Z ENDP ; SearchDialog::qt_metacall
_TEXT	ENDS
; Function compile flags: /Odtp
_TEXT	SEGMENT
this$ = 48
_clname$ = 56
?qt_metacast@SearchDialog@@UEAAPEAXPEBD@Z PROC		; SearchDialog::qt_metacast
; File F:\qt_projects\qhexedit2-master\example\Debug\moc_searchdialog.cpp
; Line 103
$LN5:
	mov	QWORD PTR [rsp+16], rdx
	mov	QWORD PTR [rsp+8], rcx
	sub	rsp, 40					; 00000028H
; Line 104
	cmp	QWORD PTR _clname$[rsp], 0
	jne	SHORT $LN2@qt_metacas
	xor	eax, eax
	jmp	SHORT $LN1@qt_metacas
$LN2@qt_metacas:
; Line 105
	lea	rdx, OFFSET FLAT:?qt_meta_stringdata_SearchDialog@@3Uqt_meta_stringdata_SearchDialog_t@@B+120
	mov	rcx, QWORD PTR _clname$[rsp]
	call	strcmp
	test	eax, eax
	jne	SHORT $LN3@qt_metacas
; Line 106
	mov	rax, QWORD PTR this$[rsp]
	jmp	SHORT $LN1@qt_metacas
$LN3@qt_metacas:
; Line 107
	mov	rdx, QWORD PTR _clname$[rsp]
	mov	rcx, QWORD PTR this$[rsp]
	call	QWORD PTR __imp_?qt_metacast@QDialog@@UEAAPEAXPEBD@Z
$LN1@qt_metacas:
; Line 108
	add	rsp, 40					; 00000028H
	ret	0
?qt_metacast@SearchDialog@@UEAAPEAXPEBD@Z ENDP		; SearchDialog::qt_metacast
_TEXT	ENDS
; Function compile flags: /Odtp
_TEXT	SEGMENT
tv82 = 32
this$ = 64
?metaObject@SearchDialog@@UEBAPEBUQMetaObject@@XZ PROC	; SearchDialog::metaObject
; File F:\qt_projects\qhexedit2-master\example\Debug\moc_searchdialog.cpp
; Line 98
$LN5:
	mov	QWORD PTR [rsp+8], rcx
	sub	rsp, 56					; 00000038H
; Line 99
	mov	rax, QWORD PTR this$[rsp]
	add	rax, 8
	mov	rcx, rax
	call	??C?$QScopedPointer@VQObjectData@@U?$QScopedPointerDeleter@VQObjectData@@@@@@QEBAPEAVQObjectData@@XZ ; QScopedPointer<QObjectData,QScopedPointerDeleter<QObjectData> >::operator->
	cmp	QWORD PTR [rax+40], 0
	je	SHORT $LN3@metaObject
	mov	rax, QWORD PTR this$[rsp]
	add	rax, 8
	mov	rcx, rax
	call	??C?$QScopedPointer@VQObjectData@@U?$QScopedPointerDeleter@VQObjectData@@@@@@QEBAPEAVQObjectData@@XZ ; QScopedPointer<QObjectData,QScopedPointerDeleter<QObjectData> >::operator->
	mov	rcx, rax
	call	QWORD PTR __imp_?dynamicMetaObject@QObjectData@@QEBAPEAUQMetaObject@@XZ
	mov	QWORD PTR tv82[rsp], rax
	jmp	SHORT $LN4@metaObject
$LN3@metaObject:
	lea	rax, OFFSET FLAT:?staticMetaObject@SearchDialog@@2UQMetaObject@@B ; SearchDialog::staticMetaObject
	mov	QWORD PTR tv82[rsp], rax
$LN4@metaObject:
	mov	rax, QWORD PTR tv82[rsp]
; Line 100
	add	rsp, 56					; 00000038H
	ret	0
?metaObject@SearchDialog@@UEBAPEBUQMetaObject@@XZ ENDP	; SearchDialog::metaObject
_TEXT	ENDS
; Function compile flags: /Odtp
;	COMDAT ??_FQHexEdit@@QEAAXXZ
_TEXT	SEGMENT
this$ = 48
??_FQHexEdit@@QEAAXXZ PROC				; QHexEdit::`default constructor closure', COMDAT
$LN3:
	mov	QWORD PTR [rsp+8], rcx
	sub	rsp, 40					; 00000028H
	xor	edx, edx
	mov	rcx, QWORD PTR this$[rsp]
	call	??0QHexEdit@@QEAA@PEAVQWidget@@@Z	; QHexEdit::QHexEdit
	add	rsp, 40					; 00000028H
	ret	0
??_FQHexEdit@@QEAAXXZ ENDP				; QHexEdit::`default constructor closure'
_TEXT	ENDS
; Function compile flags: /Odtp
;	COMDAT ?trUtf8@QHexEdit@@SA?AVQString@@PEBD0H@Z
_TEXT	SEGMENT
$T1 = 48
__$ReturnUdt$ = 80
s$ = 88
c$ = 96
n$ = 104
?trUtf8@QHexEdit@@SA?AVQString@@PEBD0H@Z PROC		; QHexEdit::trUtf8, COMDAT
; File F:\qt_projects\qhexedit2-master\src\qhexedit.h
; Line 61
$LN5:
	mov	DWORD PTR [rsp+32], r9d
	mov	QWORD PTR [rsp+24], r8
	mov	QWORD PTR [rsp+16], rdx
	mov	QWORD PTR [rsp+8], rcx
	sub	rsp, 72					; 00000048H
	mov	DWORD PTR $T1[rsp], 0
	mov	eax, DWORD PTR n$[rsp]
	mov	DWORD PTR [rsp+32], eax
	mov	r9, QWORD PTR c$[rsp]
	mov	r8, QWORD PTR s$[rsp]
	mov	rdx, QWORD PTR __$ReturnUdt$[rsp]
	lea	rcx, OFFSET FLAT:?staticMetaObject@QHexEdit@@2UQMetaObject@@B ; QHexEdit::staticMetaObject
	call	QWORD PTR __imp_?tr@QMetaObject@@QEBA?AVQString@@PEBD0H@Z
	mov	eax, DWORD PTR $T1[rsp]
	or	eax, 1
	mov	DWORD PTR $T1[rsp], eax
	mov	rax, QWORD PTR __$ReturnUdt$[rsp]
	add	rsp, 72					; 00000048H
	ret	0
?trUtf8@QHexEdit@@SA?AVQString@@PEBD0H@Z ENDP		; QHexEdit::trUtf8
_TEXT	ENDS
; Function compile flags: /Odtp
;	COMDAT ?tr@QHexEdit@@SA?AVQString@@PEBD0H@Z
_TEXT	SEGMENT
$T1 = 48
__$ReturnUdt$ = 80
s$ = 88
c$ = 96
n$ = 104
?tr@QHexEdit@@SA?AVQString@@PEBD0H@Z PROC		; QHexEdit::tr, COMDAT
; File F:\qt_projects\qhexedit2-master\src\qhexedit.h
; Line 61
$LN5:
	mov	DWORD PTR [rsp+32], r9d
	mov	QWORD PTR [rsp+24], r8
	mov	QWORD PTR [rsp+16], rdx
	mov	QWORD PTR [rsp+8], rcx
	sub	rsp, 72					; 00000048H
	mov	DWORD PTR $T1[rsp], 0
	mov	eax, DWORD PTR n$[rsp]
	mov	DWORD PTR [rsp+32], eax
	mov	r9, QWORD PTR c$[rsp]
	mov	r8, QWORD PTR s$[rsp]
	mov	rdx, QWORD PTR __$ReturnUdt$[rsp]
	lea	rcx, OFFSET FLAT:?staticMetaObject@QHexEdit@@2UQMetaObject@@B ; QHexEdit::staticMetaObject
	call	QWORD PTR __imp_?tr@QMetaObject@@QEBA?AVQString@@PEBD0H@Z
	mov	eax, DWORD PTR $T1[rsp]
	or	eax, 1
	mov	DWORD PTR $T1[rsp], eax
	mov	rax, QWORD PTR __$ReturnUdt$[rsp]
	add	rsp, 72					; 00000048H
	ret	0
?tr@QHexEdit@@SA?AVQString@@PEBD0H@Z ENDP		; QHexEdit::tr
_TEXT	ENDS
; Function compile flags: /Odtp
;	COMDAT ??C?$QScopedPointer@VQObjectData@@U?$QScopedPointerDeleter@VQObjectData@@@@@@QEBAPEAVQObjectData@@XZ
_TEXT	SEGMENT
this$ = 8
??C?$QScopedPointer@VQObjectData@@U?$QScopedPointerDeleter@VQObjectData@@@@@@QEBAPEAVQObjectData@@XZ PROC ; QScopedPointer<QObjectData,QScopedPointerDeleter<QObjectData> >::operator->, COMDAT
; File F:\QT_SW\5.12.4\MSVC2017_64\include\QtCore\qscopedpointer.h
; Line 117
	mov	QWORD PTR [rsp+8], rcx
; Line 118
	mov	rax, QWORD PTR this$[rsp]
	mov	rax, QWORD PTR [rax]
; Line 119
	ret	0
??C?$QScopedPointer@VQObjectData@@U?$QScopedPointerDeleter@VQObjectData@@@@@@QEBAPEAVQObjectData@@XZ ENDP ; QScopedPointer<QObjectData,QScopedPointerDeleter<QObjectData> >::operator->
_TEXT	ENDS
; Function compile flags: /Odtp
;	COMDAT ?__empty_global_delete@@YAXPEAX_K@Z
_TEXT	SEGMENT
__formal$ = 8
__formal$ = 16
?__empty_global_delete@@YAXPEAX_K@Z PROC		; __empty_global_delete, COMDAT
; File F:\qt_projects\qhexedit2-master\example\Debug\moc_searchdialog.cpp
; Line 128
	mov	QWORD PTR [rsp+16], rdx
	mov	QWORD PTR [rsp+8], rcx
	ret	0
?__empty_global_delete@@YAXPEAX_K@Z ENDP		; __empty_global_delete
_TEXT	ENDS
; Function compile flags: /Odtp
;	COMDAT ?__empty_global_delete@@YAXPEAX@Z
_TEXT	SEGMENT
__formal$ = 8
?__empty_global_delete@@YAXPEAX@Z PROC			; __empty_global_delete, COMDAT
; File F:\qt_projects\qhexedit2-master\example\Debug\moc_searchdialog.cpp
; Line 128
	mov	QWORD PTR [rsp+8], rcx
	ret	0
?__empty_global_delete@@YAXPEAX@Z ENDP			; __empty_global_delete
_TEXT	ENDS
END
