; Listing generated by Microsoft (R) Optimizing Compiler Version 19.23.28105.4 

include listing.inc

INCLUDELIB MSVCRT
INCLUDELIB OLDNAMES

EXTRN	__imp_?staticMetaObject@QMainWindow@@2UQMetaObject@@B:BYTE
CONST	SEGMENT
?qt_meta_stringdata_MainWindow@@3Uqt_meta_stringdata_MainWindow_t@@B DD 0ffffffffH ; qt_meta_stringdata_MainWindow
	DD	0aH
	DD	00H
	ORG $+4
	DQ	00000000000001c8H
	DD	0ffffffffH
	DD	05H
	DD	00H
	ORG $+4
	DQ	00000000000001bbH
	DD	0ffffffffH
	DD	00H
	DD	00H
	ORG $+4
	DQ	00000000000001a9H
	DD	0ffffffffH
	DD	0bH
	DD	00H
	ORG $+4
	DQ	0000000000000192H
	DD	0ffffffffH
	DD	04H
	DD	00H
	ORG $+4
	DQ	0000000000000186H
	DD	0ffffffffH
	DD	0fH
	DD	00H
	ORG $+4
	DQ	0000000000000173H
	DD	0ffffffffH
	DD	08H
	DD	00H
	ORG $+4
	DQ	000000000000016bH
	DD	0ffffffffH
	DD	04H
	DD	00H
	ORG $+4
	DQ	000000000000015cH
	DD	0ffffffffH
	DD	06H
	DD	00H
	ORG $+4
	DQ	0000000000000149H
	DD	0ffffffffH
	DD	01bH
	DD	00H
	ORG $+4
	DQ	0000000000000138H
	DD	0ffffffffH
	DD	012H
	DD	00H
	ORG $+4
	DQ	000000000000013cH
	DD	0ffffffffH
	DD	0aH
	DD	00H
	ORG $+4
	DQ	0000000000000137H
	DD	0ffffffffH
	DD	07H
	DD	00H
	ORG $+4
	DQ	000000000000012aH
	DD	0ffffffffH
	DD	010H
	DD	00H
	ORG $+4
	DQ	000000000000011aH
	DD	0ffffffffH
	DD	04H
	DD	00H
	ORG $+4
	DQ	0000000000000113H
	DD	0ffffffffH
	DD	07H
	DD	00H
	ORG $+4
	DQ	0000000000000100H
	DD	0ffffffffH
	DD	04H
	DD	00H
	ORG $+4
	DQ	00000000000000f0H
	DD	0ffffffffH
	DD	011H
	DD	00H
	ORG $+4
	DQ	00000000000000ddH
	DD	0ffffffffH
	DD	010H
	DD	00H
	ORG $+4
	DQ	00000000000000d7H
	DB	04dH
	DB	061H
	DB	069H
	DB	06eH
	DB	057H
	DB	069H
	DB	06eH
	DB	064H
	DB	06fH
	DB	077H
	DB	00H
	DB	061H
	DB	062H
	DB	06fH
	DB	075H
	DB	074H
	DB	00H
	DB	00H
	DB	064H
	DB	061H
	DB	074H
	DB	061H
	DB	043H
	DB	068H
	DB	061H
	DB	06eH
	DB	067H
	DB	065H
	DB	064H
	DB	00H
	DB	06fH
	DB	070H
	DB	065H
	DB	06eH
	DB	00H
	DB	06fH
	DB	070H
	DB	074H
	DB	069H
	DB	06fH
	DB	06eH
	DB	073H
	DB	041H
	DB	063H
	DB	063H
	DB	065H
	DB	070H
	DB	074H
	DB	065H
	DB	064H
	DB	00H
	DB	066H
	DB	069H
	DB	06eH
	DB	064H
	DB	04eH
	DB	065H
	DB	078H
	DB	074H
	DB	00H
	DB	073H
	DB	061H
	DB	076H
	DB	065H
	DB	00H
	DB	073H
	DB	061H
	DB	076H
	DB	065H
	DB	041H
	DB	073H
	DB	00H
	DB	073H
	DB	061H
	DB	076H
	DB	065H
	DB	053H
	DB	065H
	DB	06cH
	DB	065H
	DB	063H
	DB	074H
	DB	069H
	DB	06fH
	DB	06eH
	DB	054H
	DB	06fH
	DB	052H
	DB	065H
	DB	061H
	DB	064H
	DB	061H
	DB	062H
	DB	06cH
	DB	065H
	DB	046H
	DB	069H
	DB	06cH
	DB	065H
	DB	00H
	DB	073H
	DB	061H
	DB	076H
	DB	065H
	DB	054H
	DB	06fH
	DB	052H
	DB	065H
	DB	061H
	DB	064H
	DB	061H
	DB	062H
	DB	06cH
	DB	065H
	DB	046H
	DB	069H
	DB	06cH
	DB	065H
	DB	00H
	DB	073H
	DB	065H
	DB	074H
	DB	041H
	DB	064H
	DB	064H
	DB	072H
	DB	065H
	DB	073H
	DB	073H
	DB	00H
	DB	061H
	DB	064H
	DB	064H
	DB	072H
	DB	065H
	DB	073H
	DB	073H
	DB	00H
	DB	073H
	DB	065H
	DB	074H
	DB	04fH
	DB	076H
	DB	065H
	DB	072H
	DB	077H
	DB	072H
	DB	069H
	DB	074H
	DB	065H
	DB	04dH
	DB	06fH
	DB	064H
	DB	065H
	DB	00H
	DB	06dH
	DB	06fH
	DB	064H
	DB	065H
	DB	00H
	DB	073H
	DB	065H
	DB	074H
	DB	053H
	DB	069H
	DB	07aH
	DB	065H
	DB	00H
	DB	073H
	DB	069H
	DB	07aH
	DB	065H
	DB	00H
	DB	073H
	DB	068H
	DB	06fH
	DB	077H
	DB	04fH
	DB	070H
	DB	074H
	DB	069H
	DB	06fH
	DB	06eH
	DB	073H
	DB	044H
	DB	069H
	DB	061H
	DB	06cH
	DB	06fH
	DB	067H
	DB	00H
	DB	073H
	DB	068H
	DB	06fH
	DB	077H
	DB	053H
	DB	065H
	DB	061H
	DB	072H
	DB	063H
	DB	068H
	DB	044H
	DB	069H
	DB	061H
	DB	06cH
	DB	06fH
	DB	067H
	DB	00H
	ORG $+8
?qt_meta_data_MainWindow@@3QBIB DD 08H			; qt_meta_data_MainWindow
	DD	00H
	DD	00H
	DD	00H
	DD	0eH
	DD	0eH
	DD	00H
	DD	00H
	DD	00H
	DD	00H
	DD	00H
	DD	00H
	DD	00H
	DD	00H
	DD	01H
	DD	00H
	DD	054H
	DD	02H
	DD	08H
	DD	03H
	DD	00H
	DD	055H
	DD	02H
	DD	08H
	DD	04H
	DD	00H
	DD	056H
	DD	02H
	DD	08H
	DD	05H
	DD	00H
	DD	057H
	DD	02H
	DD	08H
	DD	06H
	DD	00H
	DD	058H
	DD	02H
	DD	08H
	DD	07H
	DD	00H
	DD	059H
	DD	02H
	DD	08H
	DD	08H
	DD	00H
	DD	05aH
	DD	02H
	DD	08H
	DD	09H
	DD	00H
	DD	05bH
	DD	02H
	DD	08H
	DD	0aH
	DD	00H
	DD	05cH
	DD	02H
	DD	08H
	DD	0bH
	DD	01H
	DD	05dH
	DD	02H
	DD	08H
	DD	0dH
	DD	01H
	DD	060H
	DD	02H
	DD	08H
	DD	0fH
	DD	01H
	DD	063H
	DD	02H
	DD	08H
	DD	011H
	DD	00H
	DD	066H
	DD	02H
	DD	08H
	DD	012H
	DD	00H
	DD	067H
	DD	02H
	DD	08H
	DD	02bH
	DD	02bH
	DD	02bH
	DD	02bH
	DD	02bH
	DD	01H
	DD	01H
	DD	02bH
	DD	02bH
	DD	02bH
	DD	04H
	DD	0cH
	DD	02bH
	DD	01H
	DD	0eH
	DD	02bH
	DD	04H
	DD	010H
	DD	02bH
	DD	02bH
	DD	00H
CONST	ENDS
PUBLIC	?tr@QHexEdit@@SA?AVQString@@PEBD0H@Z		; QHexEdit::tr
PUBLIC	?trUtf8@QHexEdit@@SA?AVQString@@PEBD0H@Z	; QHexEdit::trUtf8
PUBLIC	??_FQHexEdit@@QEAAXXZ				; QHexEdit::`default constructor closure'
PUBLIC	?metaObject@MainWindow@@UEBAPEBUQMetaObject@@XZ	; MainWindow::metaObject
PUBLIC	?qt_metacast@MainWindow@@UEAAPEAXPEBD@Z		; MainWindow::qt_metacast
PUBLIC	?qt_metacall@MainWindow@@UEAAHW4Call@QMetaObject@@HPEAPEAX@Z ; MainWindow::qt_metacall
PUBLIC	?qt_static_metacall@MainWindow@@CAXPEAVQObject@@W4Call@QMetaObject@@HPEAPEAX@Z ; MainWindow::qt_static_metacall
PUBLIC	?staticMetaObject@MainWindow@@2UQMetaObject@@B	; MainWindow::staticMetaObject
EXTRN	__imp_?tr@QMetaObject@@QEBA?AVQString@@PEBD0H@Z:PROC
EXTRN	__imp_?dynamicMetaObject@QObjectData@@QEBAPEAUQMetaObject@@XZ:PROC
EXTRN	__imp_?qt_metacast@QMainWindow@@UEAAPEAXPEBD@Z:PROC
EXTRN	__imp_?qt_metacall@QMainWindow@@UEAAHW4Call@QMetaObject@@HPEAPEAX@Z:PROC
EXTRN	??0QHexEdit@@QEAA@PEAVQWidget@@@Z:PROC		; QHexEdit::QHexEdit
EXTRN	?about@MainWindow@@AEAAXXZ:PROC			; MainWindow::about
EXTRN	?dataChanged@MainWindow@@AEAAXXZ:PROC		; MainWindow::dataChanged
EXTRN	?open@MainWindow@@AEAAXXZ:PROC			; MainWindow::open
EXTRN	?optionsAccepted@MainWindow@@AEAAXXZ:PROC	; MainWindow::optionsAccepted
EXTRN	?findNext@MainWindow@@AEAAXXZ:PROC		; MainWindow::findNext
EXTRN	?save@MainWindow@@AEAA_NXZ:PROC			; MainWindow::save
EXTRN	?saveAs@MainWindow@@AEAA_NXZ:PROC		; MainWindow::saveAs
EXTRN	?saveSelectionToReadableFile@MainWindow@@AEAAXXZ:PROC ; MainWindow::saveSelectionToReadableFile
EXTRN	?saveToReadableFile@MainWindow@@AEAAXXZ:PROC	; MainWindow::saveToReadableFile
EXTRN	?setAddress@MainWindow@@AEAAX_J@Z:PROC		; MainWindow::setAddress
EXTRN	?setOverwriteMode@MainWindow@@AEAAX_N@Z:PROC	; MainWindow::setOverwriteMode
EXTRN	?setSize@MainWindow@@AEAAX_J@Z:PROC		; MainWindow::setSize
EXTRN	?showOptionsDialog@MainWindow@@AEAAXXZ:PROC	; MainWindow::showOptionsDialog
EXTRN	?showSearchDialog@MainWindow@@AEAAXXZ:PROC	; MainWindow::showSearchDialog
EXTRN	?staticMetaObject@QHexEdit@@2UQMetaObject@@B:BYTE ; QHexEdit::staticMetaObject
EXTRN	__ImageBase:BYTE
;	COMDAT pdata
pdata	SEGMENT
$pdata$?tr@QHexEdit@@SA?AVQString@@PEBD0H@Z DD imagerel $LN7
	DD	imagerel $LN7+45
	DD	imagerel $unwind$?tr@QHexEdit@@SA?AVQString@@PEBD0H@Z
pdata	ENDS
;	COMDAT pdata
pdata	SEGMENT
$pdata$?trUtf8@QHexEdit@@SA?AVQString@@PEBD0H@Z DD imagerel $LN7
	DD	imagerel $LN7+45
	DD	imagerel $unwind$?trUtf8@QHexEdit@@SA?AVQString@@PEBD0H@Z
pdata	ENDS
;	COMDAT pdata
pdata	SEGMENT
$pdata$?qt_metacall@MainWindow@@UEAAHW4Call@QMetaObject@@HPEAPEAX@Z DD imagerel $LN10
	DD	imagerel $LN10+112
	DD	imagerel $unwind$?qt_metacall@MainWindow@@UEAAHW4Call@QMetaObject@@HPEAPEAX@Z
pdata	ENDS
;	COMDAT pdata
pdata	SEGMENT
$pdata$?qt_static_metacall@MainWindow@@CAXPEAVQObject@@W4Call@QMetaObject@@HPEAPEAX@Z DD imagerel $LN26
	DD	imagerel $LN26+292
	DD	imagerel $unwind$?qt_static_metacall@MainWindow@@CAXPEAVQObject@@W4Call@QMetaObject@@HPEAPEAX@Z
pdata	ENDS
CRT$XCU	SEGMENT
??staticMetaObject$initializer$@MainWindow@@2P6AXXZEA@@3P6AXXZEA DQ FLAT:??__E?staticMetaObject@MainWindow@@2UQMetaObject@@B@@YAXXZ ; ??staticMetaObject$initializer$@MainWindow@@2P6AXXZEA@@3P6AXXZEA
CRT$XCU	ENDS
_DATA	SEGMENT
?staticMetaObject@MainWindow@@2UQMetaObject@@B DB 8 DUP(00H) ; MainWindow::staticMetaObject
	DQ	FLAT:?qt_meta_stringdata_MainWindow@@3Uqt_meta_stringdata_MainWindow_t@@B
	DQ	FLAT:?qt_meta_data_MainWindow@@3QBIB
	DQ	FLAT:?qt_static_metacall@MainWindow@@CAXPEAVQObject@@W4Call@QMetaObject@@HPEAPEAX@Z
	DQ	0000000000000000H
	DQ	0000000000000000H
_DATA	ENDS
;	COMDAT xdata
xdata	SEGMENT
$unwind$?qt_static_metacall@MainWindow@@CAXPEAVQObject@@W4Call@QMetaObject@@HPEAPEAX@Z DD 020d01H
	DD	03009320dH
xdata	ENDS
;	COMDAT xdata
xdata	SEGMENT
$unwind$?qt_metacall@MainWindow@@UEAAHW4Call@QMetaObject@@HPEAPEAX@Z DD 081401H
	DD	086414H
	DD	075414H
	DD	063414H
	DD	070103214H
xdata	ENDS
;	COMDAT xdata
xdata	SEGMENT
$unwind$?trUtf8@QHexEdit@@SA?AVQString@@PEBD0H@Z DD 020601H
	DD	030025206H
xdata	ENDS
;	COMDAT xdata
xdata	SEGMENT
$unwind$?tr@QHexEdit@@SA?AVQString@@PEBD0H@Z DD 020601H
	DD	030025206H
xdata	ENDS
; Function compile flags: /Ogtpy
;	COMDAT ??__E?staticMetaObject@MainWindow@@2UQMetaObject@@B@@YAXXZ
text$di	SEGMENT
??__E?staticMetaObject@MainWindow@@2UQMetaObject@@B@@YAXXZ PROC ; `dynamic initializer for 'MainWindow::staticMetaObject'', COMDAT
; File F:\qt_projects\qhexedit2-master\example\Release\moc_mainwindow.cpp
; Line 140
	mov	rax, QWORD PTR __imp_?staticMetaObject@QMainWindow@@2UQMetaObject@@B
	mov	QWORD PTR ?staticMetaObject@MainWindow@@2UQMetaObject@@B, rax
; Line 145
	ret	0
??__E?staticMetaObject@MainWindow@@2UQMetaObject@@B@@YAXXZ ENDP ; `dynamic initializer for 'MainWindow::staticMetaObject''
text$di	ENDS
; Function compile flags: /Ogtpy
;	COMDAT ?qt_static_metacall@MainWindow@@CAXPEAVQObject@@W4Call@QMetaObject@@HPEAPEAX@Z
_TEXT	SEGMENT
_o$ = 48
_c$ = 56
_id$ = 64
_a$ = 72
?qt_static_metacall@MainWindow@@CAXPEAVQObject@@W4Call@QMetaObject@@HPEAPEAX@Z PROC ; MainWindow::qt_static_metacall, COMDAT
; File F:\qt_projects\qhexedit2-master\example\Release\moc_mainwindow.cpp
; Line 113
$LN26:
; Line 114
	test	edx, edx
	jne	$LN24@qt_static_
	push	rbx
	sub	rsp, 32					; 00000020H
; Line 113
	mov	rbx, r9
; Line 117
	cmp	r8d, 13
	ja	$LN21@qt_static_
	movsxd	rax, r8d
	lea	r8, OFFSET FLAT:__ImageBase
	mov	edx, DWORD PTR $LN23@qt_static_[r8+rax*4]
	add	rdx, r8
	jmp	rdx
$LN5@qt_static_:
; Line 137
	add	rsp, 32					; 00000020H
	pop	rbx
; Line 118
	jmp	?about@MainWindow@@AEAAXXZ		; MainWindow::about
$LN6@qt_static_:
; Line 137
	add	rsp, 32					; 00000020H
	pop	rbx
; Line 119
	jmp	?dataChanged@MainWindow@@AEAAXXZ	; MainWindow::dataChanged
$LN7@qt_static_:
; Line 137
	add	rsp, 32					; 00000020H
	pop	rbx
; Line 120
	jmp	?open@MainWindow@@AEAAXXZ		; MainWindow::open
$LN8@qt_static_:
; Line 137
	add	rsp, 32					; 00000020H
	pop	rbx
; Line 121
	jmp	?optionsAccepted@MainWindow@@AEAAXXZ	; MainWindow::optionsAccepted
$LN9@qt_static_:
; Line 137
	add	rsp, 32					; 00000020H
	pop	rbx
; Line 122
	jmp	?findNext@MainWindow@@AEAAXXZ		; MainWindow::findNext
$LN10@qt_static_:
; Line 123
	call	?save@MainWindow@@AEAA_NXZ		; MainWindow::save
; Line 124
	mov	rcx, QWORD PTR [rbx]
	test	rcx, rcx
	je	SHORT $LN21@qt_static_
	mov	BYTE PTR [rcx], al
; Line 137
	add	rsp, 32					; 00000020H
	pop	rbx
	ret	0
$LN12@qt_static_:
; Line 125
	call	?saveAs@MainWindow@@AEAA_NXZ		; MainWindow::saveAs
; Line 126
	mov	rcx, QWORD PTR [rbx]
	test	rcx, rcx
	je	SHORT $LN21@qt_static_
	mov	BYTE PTR [rcx], al
; Line 137
	add	rsp, 32					; 00000020H
	pop	rbx
	ret	0
$LN14@qt_static_:
	add	rsp, 32					; 00000020H
	pop	rbx
; Line 127
	jmp	?saveSelectionToReadableFile@MainWindow@@AEAAXXZ ; MainWindow::saveSelectionToReadableFile
$LN15@qt_static_:
; Line 137
	add	rsp, 32					; 00000020H
	pop	rbx
; Line 128
	jmp	?saveToReadableFile@MainWindow@@AEAAXXZ	; MainWindow::saveToReadableFile
$LN16@qt_static_:
; Line 129
	mov	rdx, QWORD PTR [r9+8]
	mov	rdx, QWORD PTR [rdx]
; Line 137
	add	rsp, 32					; 00000020H
	pop	rbx
; Line 129
	jmp	?setAddress@MainWindow@@AEAAX_J@Z	; MainWindow::setAddress
$LN17@qt_static_:
; Line 130
	mov	rax, QWORD PTR [r9+8]
	movzx	edx, BYTE PTR [rax]
; Line 137
	add	rsp, 32					; 00000020H
	pop	rbx
; Line 130
	jmp	?setOverwriteMode@MainWindow@@AEAAX_N@Z	; MainWindow::setOverwriteMode
$LN18@qt_static_:
; Line 131
	mov	rdx, QWORD PTR [r9+8]
	mov	rdx, QWORD PTR [rdx]
; Line 137
	add	rsp, 32					; 00000020H
	pop	rbx
; Line 131
	jmp	?setSize@MainWindow@@AEAAX_J@Z		; MainWindow::setSize
$LN19@qt_static_:
; Line 137
	add	rsp, 32					; 00000020H
	pop	rbx
; Line 132
	jmp	?showOptionsDialog@MainWindow@@AEAAXXZ	; MainWindow::showOptionsDialog
$LN20@qt_static_:
; Line 133
	call	?showSearchDialog@MainWindow@@AEAAXXZ	; MainWindow::showSearchDialog
$LN21@qt_static_:
; Line 137
	add	rsp, 32					; 00000020H
	pop	rbx
$LN24@qt_static_:
	ret	0
	npad	3
$LN23@qt_static_:
	DD	$LN5@qt_static_
	DD	$LN6@qt_static_
	DD	$LN7@qt_static_
	DD	$LN8@qt_static_
	DD	$LN9@qt_static_
	DD	$LN10@qt_static_
	DD	$LN12@qt_static_
	DD	$LN14@qt_static_
	DD	$LN15@qt_static_
	DD	$LN16@qt_static_
	DD	$LN17@qt_static_
	DD	$LN18@qt_static_
	DD	$LN19@qt_static_
	DD	$LN20@qt_static_
?qt_static_metacall@MainWindow@@CAXPEAVQObject@@W4Call@QMetaObject@@HPEAPEAX@Z ENDP ; MainWindow::qt_static_metacall
_TEXT	ENDS
; Function compile flags: /Ogtpy
;	COMDAT ?qt_metacall@MainWindow@@UEAAHW4Call@QMetaObject@@HPEAPEAX@Z
_TEXT	SEGMENT
this$ = 48
_c$ = 56
_id$ = 64
_a$ = 72
?qt_metacall@MainWindow@@UEAAHW4Call@QMetaObject@@HPEAPEAX@Z PROC ; MainWindow::qt_metacall, COMDAT
; File F:\qt_projects\qhexedit2-master\example\Release\moc_mainwindow.cpp
; Line 163
$LN10:
	mov	QWORD PTR [rsp+8], rbx
	mov	QWORD PTR [rsp+16], rbp
	mov	QWORD PTR [rsp+24], rsi
	push	rdi
	sub	rsp, 32					; 00000020H
	mov	rsi, r9
	mov	edi, edx
	mov	rbp, rcx
; Line 164
	call	QWORD PTR __imp_?qt_metacall@QMainWindow@@UEAAHW4Call@QMetaObject@@HPEAPEAX@Z
	mov	ebx, eax
; Line 165
	test	eax, eax
	js	SHORT $LN1@qt_metacal
; Line 167
	test	edi, edi
	jne	SHORT $LN3@qt_metacal
; Line 168
	cmp	eax, 14
	jge	SHORT $LN7@qt_metacal
; Line 169
	mov	r9, rsi
	mov	r8d, eax
	xor	edx, edx
	mov	rcx, rbp
	call	?qt_static_metacall@MainWindow@@CAXPEAVQObject@@W4Call@QMetaObject@@HPEAPEAX@Z ; MainWindow::qt_static_metacall
; Line 170
	jmp	SHORT $LN7@qt_metacal
$LN3@qt_metacal:
; Line 171
	cmp	edi, 12
	jne	SHORT $LN6@qt_metacal
; Line 172
	cmp	ebx, 14
	jge	SHORT $LN7@qt_metacal
; Line 173
	mov	rax, QWORD PTR [rsi]
	mov	DWORD PTR [rax], -1
$LN7@qt_metacal:
; Line 176
	sub	ebx, 14
$LN6@qt_metacal:
	mov	eax, ebx
$LN1@qt_metacal:
; Line 177
	mov	rbx, QWORD PTR [rsp+48]
	mov	rbp, QWORD PTR [rsp+56]
	mov	rsi, QWORD PTR [rsp+64]
	add	rsp, 32					; 00000020H
	pop	rdi
	ret	0
?qt_metacall@MainWindow@@UEAAHW4Call@QMetaObject@@HPEAPEAX@Z ENDP ; MainWindow::qt_metacall
_TEXT	ENDS
; Function compile flags: /Ogtpy
;	COMDAT ?qt_metacast@MainWindow@@UEAAPEAXPEBD@Z
_TEXT	SEGMENT
this$ = 8
_clname$ = 16
?qt_metacast@MainWindow@@UEAAPEAXPEBD@Z PROC		; MainWindow::qt_metacast, COMDAT
; File F:\qt_projects\qhexedit2-master\example\Release\moc_mainwindow.cpp
; Line 155
	mov	r9, rdx
	mov	r10, rcx
; Line 156
	test	rdx, rdx
	jne	SHORT $LN2@qt_metacas
	xor	eax, eax
; Line 160
	ret	0
$LN2@qt_metacas:
; Line 157
	lea	r8, OFFSET FLAT:?qt_meta_stringdata_MainWindow@@3Uqt_meta_stringdata_MainWindow_t@@B+456
	mov	rax, r9
	sub	r8, r9
	npad	5
$LL5@qt_metacas:
	movzx	edx, BYTE PTR [rax]
	movzx	ecx, BYTE PTR [rax+r8]
	sub	edx, ecx
	jne	SHORT $LN6@qt_metacas
	inc	rax
	test	ecx, ecx
	jne	SHORT $LL5@qt_metacas
$LN6@qt_metacas:
	test	edx, edx
	jne	SHORT $LN3@qt_metacas
; Line 158
	mov	rax, r10
; Line 160
	ret	0
$LN3@qt_metacas:
; Line 159
	mov	rdx, r9
	mov	rcx, r10
	rex_jmp	QWORD PTR __imp_?qt_metacast@QMainWindow@@UEAAPEAXPEBD@Z
?qt_metacast@MainWindow@@UEAAPEAXPEBD@Z ENDP		; MainWindow::qt_metacast
_TEXT	ENDS
; Function compile flags: /Ogtpy
;	COMDAT ?metaObject@MainWindow@@UEBAPEBUQMetaObject@@XZ
_TEXT	SEGMENT
this$ = 8
?metaObject@MainWindow@@UEBAPEBUQMetaObject@@XZ PROC	; MainWindow::metaObject, COMDAT
; File F:\qt_projects\qhexedit2-master\example\Release\moc_mainwindow.cpp
; Line 151
	mov	rcx, QWORD PTR [rcx+8]
	cmp	QWORD PTR [rcx+40], 0
	je	SHORT $LN3@metaObject
	rex_jmp	QWORD PTR __imp_?dynamicMetaObject@QObjectData@@QEBAPEAUQMetaObject@@XZ
$LN3@metaObject:
	lea	rax, OFFSET FLAT:?staticMetaObject@MainWindow@@2UQMetaObject@@B ; MainWindow::staticMetaObject
; Line 152
	ret	0
?metaObject@MainWindow@@UEBAPEBUQMetaObject@@XZ ENDP	; MainWindow::metaObject
_TEXT	ENDS
; Function compile flags: /Ogtpy
;	COMDAT ??_FQHexEdit@@QEAAXXZ
_TEXT	SEGMENT
this$ = 8
??_FQHexEdit@@QEAAXXZ PROC				; QHexEdit::`default constructor closure', COMDAT
	xor	edx, edx
	jmp	??0QHexEdit@@QEAA@PEAVQWidget@@@Z	; QHexEdit::QHexEdit
??_FQHexEdit@@QEAAXXZ ENDP				; QHexEdit::`default constructor closure'
_TEXT	ENDS
; Function compile flags: /Ogtpy
;	COMDAT ?trUtf8@QHexEdit@@SA?AVQString@@PEBD0H@Z
_TEXT	SEGMENT
__$ReturnUdt$ = 64
s$ = 72
c$ = 80
n$ = 88
?trUtf8@QHexEdit@@SA?AVQString@@PEBD0H@Z PROC		; QHexEdit::trUtf8, COMDAT
; File F:\qt_projects\qhexedit2-master\src\qhexedit.h
; Line 61
$LN7:
	push	rbx
	sub	rsp, 48					; 00000030H
	mov	DWORD PTR [rsp+32], r9d
	mov	rbx, rcx
	mov	r9, r8
	mov	r8, rdx
	mov	rdx, rcx
	lea	rcx, OFFSET FLAT:?staticMetaObject@QHexEdit@@2UQMetaObject@@B ; QHexEdit::staticMetaObject
	call	QWORD PTR __imp_?tr@QMetaObject@@QEBA?AVQString@@PEBD0H@Z
	mov	rax, rbx
	add	rsp, 48					; 00000030H
	pop	rbx
	ret	0
?trUtf8@QHexEdit@@SA?AVQString@@PEBD0H@Z ENDP		; QHexEdit::trUtf8
_TEXT	ENDS
; Function compile flags: /Ogtpy
;	COMDAT ?tr@QHexEdit@@SA?AVQString@@PEBD0H@Z
_TEXT	SEGMENT
__$ReturnUdt$ = 64
s$ = 72
c$ = 80
n$ = 88
?tr@QHexEdit@@SA?AVQString@@PEBD0H@Z PROC		; QHexEdit::tr, COMDAT
; File F:\qt_projects\qhexedit2-master\src\qhexedit.h
; Line 61
$LN7:
	push	rbx
	sub	rsp, 48					; 00000030H
	mov	DWORD PTR [rsp+32], r9d
	mov	rbx, rcx
	mov	r9, r8
	mov	r8, rdx
	mov	rdx, rcx
	lea	rcx, OFFSET FLAT:?staticMetaObject@QHexEdit@@2UQMetaObject@@B ; QHexEdit::staticMetaObject
	call	QWORD PTR __imp_?tr@QMetaObject@@QEBA?AVQString@@PEBD0H@Z
	mov	rax, rbx
	add	rsp, 48					; 00000030H
	pop	rbx
	ret	0
?tr@QHexEdit@@SA?AVQString@@PEBD0H@Z ENDP		; QHexEdit::tr
_TEXT	ENDS
END
