; Listing generated by Microsoft (R) Optimizing Compiler Version 19.23.28105.4 

include listing.inc

INCLUDELIB MSVCRT
INCLUDELIB OLDNAMES

EXTRN	__imp_?staticMetaObject@QDialog@@2UQMetaObject@@B:BYTE
CONST	SEGMENT
?qt_meta_stringdata_OptionsDialog@@3Uqt_meta_stringdata_OptionsDialog_t@@B DD 0ffffffffH ; qt_meta_stringdata_OptionsDialog
	DD	0dH
	DD	00H
	ORG $+4
	DQ	00000000000000a8H
	DD	0ffffffffH
	DD	06H
	DD	00H
	ORG $+4
	DQ	000000000000009eH
	DD	0ffffffffH
	DD	00H
	DD	00H
	ORG $+4
	DQ	000000000000008dH
	DD	0ffffffffH
	DD	01eH
	DD	00H
	ORG $+4
	DQ	0000000000000076H
	DD	0ffffffffH
	DD	01dH
	DD	00H
	ORG $+4
	DQ	000000000000007dH
	DD	0ffffffffH
	DD	01bH
	DD	00H
	ORG $+4
	DQ	0000000000000083H
	DD	0ffffffffH
	DD	017H
	DD	00H
	ORG $+4
	DQ	0000000000000087H
	DB	04fH
	DB	070H
	DB	074H
	DB	069H
	DB	06fH
	DB	06eH
	DB	073H
	DB	044H
	DB	069H
	DB	061H
	DB	06cH
	DB	06fH
	DB	067H
	DB	00H
	DB	061H
	DB	063H
	DB	063H
	DB	065H
	DB	070H
	DB	074H
	DB	00H
	DB	00H
	DB	06fH
	DB	06eH
	DB	05fH
	DB	070H
	DB	062H
	DB	048H
	DB	069H
	DB	067H
	DB	068H
	DB	06cH
	DB	069H
	DB	067H
	DB	068H
	DB	074H
	DB	069H
	DB	06eH
	DB	067H
	DB	043H
	DB	06fH
	DB	06cH
	DB	06fH
	DB	072H
	DB	05fH
	DB	063H
	DB	06cH
	DB	069H
	DB	063H
	DB	06bH
	DB	065H
	DB	064H
	DB	00H
	DB	06fH
	DB	06eH
	DB	05fH
	DB	070H
	DB	062H
	DB	041H
	DB	064H
	DB	064H
	DB	072H
	DB	065H
	DB	073H
	DB	073H
	DB	041H
	DB	072H
	DB	065H
	DB	061H
	DB	043H
	DB	06fH
	DB	06cH
	DB	06fH
	DB	072H
	DB	05fH
	DB	063H
	DB	06cH
	DB	069H
	DB	063H
	DB	06bH
	DB	065H
	DB	064H
	DB	00H
	DB	06fH
	DB	06eH
	DB	05fH
	DB	070H
	DB	062H
	DB	053H
	DB	065H
	DB	06cH
	DB	065H
	DB	063H
	DB	074H
	DB	069H
	DB	06fH
	DB	06eH
	DB	043H
	DB	06fH
	DB	06cH
	DB	06fH
	DB	072H
	DB	05fH
	DB	063H
	DB	06cH
	DB	069H
	DB	063H
	DB	06bH
	DB	065H
	DB	064H
	DB	00H
	DB	06fH
	DB	06eH
	DB	05fH
	DB	070H
	DB	062H
	DB	057H
	DB	069H
	DB	064H
	DB	067H
	DB	065H
	DB	074H
	DB	046H
	DB	06fH
	DB	06eH
	DB	074H
	DB	05fH
	DB	063H
	DB	06cH
	DB	069H
	DB	063H
	DB	06bH
	DB	065H
	DB	064H
	DB	00H
	ORG $+1
?qt_meta_data_OptionsDialog@@3QBIB DD 08H		; qt_meta_data_OptionsDialog
	DD	00H
	DD	00H
	DD	00H
	DD	05H
	DD	0eH
	DD	00H
	DD	00H
	DD	00H
	DD	00H
	DD	00H
	DD	00H
	DD	00H
	DD	00H
	DD	01H
	DD	00H
	DD	027H
	DD	02H
	DD	0aH
	DD	03H
	DD	00H
	DD	028H
	DD	02H
	DD	08H
	DD	04H
	DD	00H
	DD	029H
	DD	02H
	DD	08H
	DD	05H
	DD	00H
	DD	02aH
	DD	02H
	DD	08H
	DD	06H
	DD	00H
	DD	02bH
	DD	02H
	DD	08H
	DD	02bH
	DD	02bH
	DD	02bH
	DD	02bH
	DD	02bH
	DD	00H
CONST	ENDS
PUBLIC	?metaObject@OptionsDialog@@UEBAPEBUQMetaObject@@XZ ; OptionsDialog::metaObject
PUBLIC	?qt_metacast@OptionsDialog@@UEAAPEAXPEBD@Z	; OptionsDialog::qt_metacast
PUBLIC	?qt_metacall@OptionsDialog@@UEAAHW4Call@QMetaObject@@HPEAPEAX@Z ; OptionsDialog::qt_metacall
PUBLIC	?qt_static_metacall@OptionsDialog@@CAXPEAVQObject@@W4Call@QMetaObject@@HPEAPEAX@Z ; OptionsDialog::qt_static_metacall
PUBLIC	?staticMetaObject@OptionsDialog@@2UQMetaObject@@B ; OptionsDialog::staticMetaObject
EXTRN	__imp_?dynamicMetaObject@QObjectData@@QEBAPEAUQMetaObject@@XZ:PROC
EXTRN	__imp_?qt_metacast@QDialog@@UEAAPEAXPEBD@Z:PROC
EXTRN	__imp_?qt_metacall@QDialog@@UEAAHW4Call@QMetaObject@@HPEAPEAX@Z:PROC
EXTRN	?on_pbHighlightingColor_clicked@OptionsDialog@@AEAAXXZ:PROC ; OptionsDialog::on_pbHighlightingColor_clicked
EXTRN	?on_pbAddressAreaColor_clicked@OptionsDialog@@AEAAXXZ:PROC ; OptionsDialog::on_pbAddressAreaColor_clicked
EXTRN	?on_pbSelectionColor_clicked@OptionsDialog@@AEAAXXZ:PROC ; OptionsDialog::on_pbSelectionColor_clicked
EXTRN	?on_pbWidgetFont_clicked@OptionsDialog@@AEAAXXZ:PROC ; OptionsDialog::on_pbWidgetFont_clicked
;	COMDAT pdata
pdata	SEGMENT
$pdata$?qt_metacall@OptionsDialog@@UEAAHW4Call@QMetaObject@@HPEAPEAX@Z DD imagerel $LN21
	DD	imagerel $LN21+176
	DD	imagerel $unwind$?qt_metacall@OptionsDialog@@UEAAHW4Call@QMetaObject@@HPEAPEAX@Z
pdata	ENDS
CRT$XCU	SEGMENT
??staticMetaObject$initializer$@OptionsDialog@@2P6AXXZEA@@3P6AXXZEA DQ FLAT:??__E?staticMetaObject@OptionsDialog@@2UQMetaObject@@B@@YAXXZ ; ??staticMetaObject$initializer$@OptionsDialog@@2P6AXXZEA@@3P6AXXZEA
CRT$XCU	ENDS
_DATA	SEGMENT
?staticMetaObject@OptionsDialog@@2UQMetaObject@@B DB 8 DUP(00H) ; OptionsDialog::staticMetaObject
	DQ	FLAT:?qt_meta_stringdata_OptionsDialog@@3Uqt_meta_stringdata_OptionsDialog_t@@B
	DQ	FLAT:?qt_meta_data_OptionsDialog@@3QBIB
	DQ	FLAT:?qt_static_metacall@OptionsDialog@@CAXPEAVQObject@@W4Call@QMetaObject@@HPEAPEAX@Z
	DQ	0000000000000000H
	DQ	0000000000000000H
_DATA	ENDS
;	COMDAT xdata
xdata	SEGMENT
$unwind$?qt_metacall@OptionsDialog@@UEAAHW4Call@QMetaObject@@HPEAPEAX@Z DD 081501H
	DD	087415H
	DD	076415H
	DD	063415H
	DD	0e0113215H
xdata	ENDS
; Function compile flags: /Ogtpy
;	COMDAT ??__E?staticMetaObject@OptionsDialog@@2UQMetaObject@@B@@YAXXZ
text$di	SEGMENT
??__E?staticMetaObject@OptionsDialog@@2UQMetaObject@@B@@YAXXZ PROC ; `dynamic initializer for 'OptionsDialog::staticMetaObject'', COMDAT
; File F:\qt_projects\qhexedit2-master\example\Release\moc_optionsdialog.cpp
; Line 99
	mov	rax, QWORD PTR __imp_?staticMetaObject@QDialog@@2UQMetaObject@@B
	mov	QWORD PTR ?staticMetaObject@OptionsDialog@@2UQMetaObject@@B, rax
; Line 104
	ret	0
??__E?staticMetaObject@OptionsDialog@@2UQMetaObject@@B@@YAXXZ ENDP ; `dynamic initializer for 'OptionsDialog::staticMetaObject''
text$di	ENDS
; Function compile flags: /Ogtpy
;	COMDAT ?qt_static_metacall@OptionsDialog@@CAXPEAVQObject@@W4Call@QMetaObject@@HPEAPEAX@Z
_TEXT	SEGMENT
_o$ = 8
_c$ = 16
_id$ = 24
_a$ = 32
?qt_static_metacall@OptionsDialog@@CAXPEAVQObject@@W4Call@QMetaObject@@HPEAPEAX@Z PROC ; OptionsDialog::qt_static_metacall, COMDAT
; File F:\qt_projects\qhexedit2-master\example\Release\moc_optionsdialog.cpp
; Line 83
	test	edx, edx
	jne	SHORT $LN10@qt_static_
; Line 86
	test	r8d, r8d
	je	SHORT $LN5@qt_static_
	sub	r8d, 1
	je	SHORT $LN6@qt_static_
	sub	r8d, 1
	je	SHORT $LN7@qt_static_
	sub	r8d, 1
	je	SHORT $LN8@qt_static_
	cmp	r8d, 1
	jne	SHORT $LN10@qt_static_
; Line 91
	jmp	?on_pbWidgetFont_clicked@OptionsDialog@@AEAAXXZ ; OptionsDialog::on_pbWidgetFont_clicked
$LN8@qt_static_:
; Line 90
	jmp	?on_pbSelectionColor_clicked@OptionsDialog@@AEAAXXZ ; OptionsDialog::on_pbSelectionColor_clicked
$LN7@qt_static_:
; Line 89
	jmp	?on_pbAddressAreaColor_clicked@OptionsDialog@@AEAAXXZ ; OptionsDialog::on_pbAddressAreaColor_clicked
$LN6@qt_static_:
; Line 88
	jmp	?on_pbHighlightingColor_clicked@OptionsDialog@@AEAAXXZ ; OptionsDialog::on_pbHighlightingColor_clicked
$LN5@qt_static_:
; Line 87
	mov	rax, QWORD PTR [rcx]
	rex_jmp	QWORD PTR [rax+384]
$LN10@qt_static_:
; Line 96
	ret	0
?qt_static_metacall@OptionsDialog@@CAXPEAVQObject@@W4Call@QMetaObject@@HPEAPEAX@Z ENDP ; OptionsDialog::qt_static_metacall
_TEXT	ENDS
; Function compile flags: /Ogtpy
;	COMDAT ?qt_metacall@OptionsDialog@@UEAAHW4Call@QMetaObject@@HPEAPEAX@Z
_TEXT	SEGMENT
this$ = 48
_c$ = 56
_id$ = 64
_a$ = 72
?qt_metacall@OptionsDialog@@UEAAHW4Call@QMetaObject@@HPEAPEAX@Z PROC ; OptionsDialog::qt_metacall, COMDAT
; File F:\qt_projects\qhexedit2-master\example\Release\moc_optionsdialog.cpp
; Line 122
$LN21:
	mov	QWORD PTR [rsp+8], rbx
	mov	QWORD PTR [rsp+16], rsi
	mov	QWORD PTR [rsp+24], rdi
	push	r14
	sub	rsp, 32					; 00000020H
	mov	r14, r9
	mov	esi, edx
	mov	rdi, rcx
; Line 123
	call	QWORD PTR __imp_?qt_metacall@QDialog@@UEAAHW4Call@QMetaObject@@HPEAPEAX@Z
	mov	ebx, eax
; Line 124
	test	eax, eax
	js	SHORT $LN1@qt_metacal
; Line 126
	test	esi, esi
	jne	SHORT $LN3@qt_metacal
; Line 127
	cmp	eax, 5
	jge	SHORT $LN7@qt_metacal
; Line 86
	mov	ecx, eax
	test	eax, eax
	je	SHORT $LN13@qt_metacal
	sub	ecx, 1
	je	SHORT $LN14@qt_metacal
	sub	ecx, 1
	je	SHORT $LN15@qt_metacal
	sub	ecx, 1
	je	SHORT $LN16@qt_metacal
	cmp	ecx, 1
	jne	SHORT $LN7@qt_metacal
; Line 91
	mov	rcx, rdi
	call	?on_pbWidgetFont_clicked@OptionsDialog@@AEAAXXZ ; OptionsDialog::on_pbWidgetFont_clicked
	jmp	SHORT $LN7@qt_metacal
$LN16@qt_metacal:
; Line 90
	mov	rcx, rdi
	call	?on_pbSelectionColor_clicked@OptionsDialog@@AEAAXXZ ; OptionsDialog::on_pbSelectionColor_clicked
	jmp	SHORT $LN7@qt_metacal
$LN15@qt_metacal:
; Line 89
	mov	rcx, rdi
	call	?on_pbAddressAreaColor_clicked@OptionsDialog@@AEAAXXZ ; OptionsDialog::on_pbAddressAreaColor_clicked
	jmp	SHORT $LN7@qt_metacal
$LN14@qt_metacal:
; Line 88
	mov	rcx, rdi
	call	?on_pbHighlightingColor_clicked@OptionsDialog@@AEAAXXZ ; OptionsDialog::on_pbHighlightingColor_clicked
	jmp	SHORT $LN7@qt_metacal
$LN13@qt_metacal:
; Line 87
	mov	rax, QWORD PTR [rdi]
	mov	rcx, rdi
	call	QWORD PTR [rax+384]
; Line 129
	jmp	SHORT $LN7@qt_metacal
$LN3@qt_metacal:
; Line 130
	cmp	esi, 12
	jne	SHORT $LN6@qt_metacal
; Line 131
	cmp	ebx, 5
	jge	SHORT $LN7@qt_metacal
; Line 132
	mov	rax, QWORD PTR [r14]
	mov	DWORD PTR [rax], -1
$LN7@qt_metacal:
; Line 135
	sub	ebx, 5
$LN6@qt_metacal:
	mov	eax, ebx
$LN1@qt_metacal:
; Line 136
	mov	rbx, QWORD PTR [rsp+48]
	mov	rsi, QWORD PTR [rsp+56]
	mov	rdi, QWORD PTR [rsp+64]
	add	rsp, 32					; 00000020H
	pop	r14
	ret	0
?qt_metacall@OptionsDialog@@UEAAHW4Call@QMetaObject@@HPEAPEAX@Z ENDP ; OptionsDialog::qt_metacall
_TEXT	ENDS
; Function compile flags: /Ogtpy
;	COMDAT ?qt_metacast@OptionsDialog@@UEAAPEAXPEBD@Z
_TEXT	SEGMENT
this$ = 8
_clname$ = 16
?qt_metacast@OptionsDialog@@UEAAPEAXPEBD@Z PROC		; OptionsDialog::qt_metacast, COMDAT
; File F:\qt_projects\qhexedit2-master\example\Release\moc_optionsdialog.cpp
; Line 114
	mov	r9, rdx
	mov	r10, rcx
; Line 115
	test	rdx, rdx
	jne	SHORT $LN2@qt_metacas
	xor	eax, eax
; Line 119
	ret	0
$LN2@qt_metacas:
; Line 116
	lea	r8, OFFSET FLAT:?qt_meta_stringdata_OptionsDialog@@3Uqt_meta_stringdata_OptionsDialog_t@@B+168
	mov	rax, r9
	sub	r8, r9
	npad	5
$LL5@qt_metacas:
	movzx	edx, BYTE PTR [rax]
	movzx	ecx, BYTE PTR [rax+r8]
	sub	edx, ecx
	jne	SHORT $LN6@qt_metacas
	inc	rax
	test	ecx, ecx
	jne	SHORT $LL5@qt_metacas
$LN6@qt_metacas:
	test	edx, edx
	jne	SHORT $LN3@qt_metacas
; Line 117
	mov	rax, r10
; Line 119
	ret	0
$LN3@qt_metacas:
; Line 118
	mov	rdx, r9
	mov	rcx, r10
	rex_jmp	QWORD PTR __imp_?qt_metacast@QDialog@@UEAAPEAXPEBD@Z
?qt_metacast@OptionsDialog@@UEAAPEAXPEBD@Z ENDP		; OptionsDialog::qt_metacast
_TEXT	ENDS
; Function compile flags: /Ogtpy
;	COMDAT ?metaObject@OptionsDialog@@UEBAPEBUQMetaObject@@XZ
_TEXT	SEGMENT
this$ = 8
?metaObject@OptionsDialog@@UEBAPEBUQMetaObject@@XZ PROC	; OptionsDialog::metaObject, COMDAT
; File F:\qt_projects\qhexedit2-master\example\Release\moc_optionsdialog.cpp
; Line 110
	mov	rcx, QWORD PTR [rcx+8]
	cmp	QWORD PTR [rcx+40], 0
	je	SHORT $LN3@metaObject
	rex_jmp	QWORD PTR __imp_?dynamicMetaObject@QObjectData@@QEBAPEAUQMetaObject@@XZ
$LN3@metaObject:
	lea	rax, OFFSET FLAT:?staticMetaObject@OptionsDialog@@2UQMetaObject@@B ; OptionsDialog::staticMetaObject
; Line 111
	ret	0
?metaObject@OptionsDialog@@UEBAPEBUQMetaObject@@XZ ENDP	; OptionsDialog::metaObject
_TEXT	ENDS
END
