; Listing generated by Microsoft (R) Optimizing Compiler Version 19.23.28105.4 

include listing.inc

INCLUDELIB MSVCRT
INCLUDELIB OLDNAMES

EXTRN	__imp_?staticMetaObject@QAbstractScrollArea@@2UQMetaObject@@B:BYTE
CONST	SEGMENT
?qt_meta_stringdata_QHexEdit@@3Uqt_meta_stringdata_QHexEdit_t@@B DD 0ffffffffH ; qt_meta_stringdata_QHexEdit
	DD	08H
	DD	00H
	ORG $+4
	DQ	0000000000000300H
	DD	0ffffffffH
	DD	015H
	DD	00H
	ORG $+4
	DQ	00000000000002f1H
	DD	0ffffffffH
	DD	00H
	DD	00H
	ORG $+4
	DQ	00000000000002efH
	DD	0ffffffffH
	DD	07H
	DD	00H
	ORG $+4
	DQ	00000000000002d8H
	DD	0ffffffffH
	DD	012H
	DD	00H
	ORG $+4
	DQ	00000000000002c8H
	DD	0ffffffffH
	DD	04H
	DD	00H
	ORG $+4
	DQ	00000000000002c3H
	DD	0ffffffffH
	DD	0bH
	DD	00H
	ORG $+4
	DQ	00000000000002b0H
	DD	0ffffffffH
	DD	014H
	DD	00H
	ORG $+4
	DQ	00000000000002a4H
	DD	0ffffffffH
	DD	05H
	DD	00H
	ORG $+4
	DQ	00000000000002a1H
	DD	0ffffffffH
	DD	04H
	DD	00H
	ORG $+4
	DQ	000000000000028fH
	DD	0ffffffffH
	DD	04H
	DD	00H
	ORG $+4
	DQ	000000000000027cH
	DD	0ffffffffH
	DD	06H
	DD	00H
	ORG $+4
	DQ	0000000000000269H
	DD	0ffffffffH
	DD	012H
	DD	00H
	ORG $+4
	DQ	0000000000000258H
	DD	0ffffffffH
	DD	03H
	DD	00H
	ORG $+4
	DQ	0000000000000253H
	DD	0ffffffffH
	DD	07H
	DD	00H
	ORG $+4
	DQ	000000000000023fH
	DD	0ffffffffH
	DD	0cH
	DD	00H
	ORG $+4
	DQ	000000000000022fH
	DD	0ffffffffH
	DD	0bH
	DD	00H
	ORG $+4
	DQ	0000000000000224H
	DD	0ffffffffH
	DD	010H
	DD	00H
	ORG $+4
	DQ	0000000000000218H
	DD	0ffffffffH
	DD	0dH
	DD	00H
	ORG $+4
	DQ	0000000000000211H
	DD	0ffffffffH
	DD	0cH
	DD	00H
	ORG $+4
	DQ	0000000000000207H
	DD	0ffffffffH
	DD	09H
	DD	00H
	ORG $+4
	DQ	00000000000001fcH
	DD	0ffffffffH
	DD	0cH
	DD	00H
	ORG $+4
	DQ	00000000000001eeH
	DD	0ffffffffH
	DD	0eH
	DD	00H
	ORG $+4
	DQ	00000000000001e3H
	DD	0ffffffffH
	DD	04H
	DD	00H
	ORG $+4
	DQ	00000000000001daH
	DD	0ffffffffH
	DD	07H
	DD	00H
	ORG $+4
	DQ	00000000000001c7H
	DD	0ffffffffH
	DD	013H
	DD	00H
	ORG $+4
	DQ	00000000000001b7H
	DD	0ffffffffH
	DD	0cH
	DD	00H
	ORG $+4
	DQ	00000000000001b3H
	DD	0ffffffffH
	DD	011H
	DD	00H
	ORG $+4
	DQ	00000000000001a8H
	DD	0ffffffffH
	DD	0dH
	DD	00H
	ORG $+4
	DQ	00000000000001a2H
	DD	0ffffffffH
	DD	0eH
	DD	00H
	ORG $+4
	DQ	0000000000000198H
	DD	0ffffffffH
	DD	08H
	DD	00H
	ORG $+4
	DQ	000000000000018fH
	DD	0ffffffffH
	DD	04H
	DD	00H
	ORG $+4
	DQ	0000000000000180H
	DB	051H
	DB	048H
	DB	065H
	DB	078H
	DB	045H
	DB	064H
	DB	069H
	DB	074H
	DB	00H
	DB	063H
	DB	075H
	DB	072H
	DB	072H
	DB	065H
	DB	06eH
	DB	074H
	DB	041H
	DB	064H
	DB	064H
	DB	072H
	DB	065H
	DB	073H
	DB	073H
	DB	043H
	DB	068H
	DB	061H
	DB	06eH
	DB	067H
	DB	065H
	DB	064H
	DB	00H
	DB	00H
	DB	061H
	DB	064H
	DB	064H
	DB	072H
	DB	065H
	DB	073H
	DB	073H
	DB	00H
	DB	063H
	DB	075H
	DB	072H
	DB	072H
	DB	065H
	DB	06eH
	DB	074H
	DB	053H
	DB	069H
	DB	07aH
	DB	065H
	DB	043H
	DB	068H
	DB	061H
	DB	06eH
	DB	067H
	DB	065H
	DB	064H
	DB	00H
	DB	073H
	DB	069H
	DB	07aH
	DB	065H
	DB	00H
	DB	064H
	DB	061H
	DB	074H
	DB	061H
	DB	043H
	DB	068H
	DB	061H
	DB	06eH
	DB	067H
	DB	065H
	DB	064H
	DB	00H
	DB	06fH
	DB	076H
	DB	065H
	DB	072H
	DB	077H
	DB	072H
	DB	069H
	DB	074H
	DB	065H
	DB	04dH
	DB	06fH
	DB	064H
	DB	065H
	DB	043H
	DB	068H
	DB	061H
	DB	06eH
	DB	067H
	DB	065H
	DB	064H
	DB	00H
	DB	073H
	DB	074H
	DB	061H
	DB	074H
	DB	065H
	DB	00H
	DB	072H
	DB	065H
	DB	064H
	DB	06fH
	DB	00H
	DB	075H
	DB	06eH
	DB	064H
	DB	06fH
	DB	00H
	DB	061H
	DB	064H
	DB	06aH
	DB	075H
	DB	073H
	DB	074H
	DB	00H
	DB	064H
	DB	061H
	DB	074H
	DB	061H
	DB	043H
	DB	068H
	DB	061H
	DB	06eH
	DB	067H
	DB	065H
	DB	064H
	DB	050H
	DB	072H
	DB	069H
	DB	076H
	DB	061H
	DB	074H
	DB	065H
	DB	00H
	DB	069H
	DB	064H
	DB	078H
	DB	00H
	DB	072H
	DB	065H
	DB	066H
	DB	072H
	DB	065H
	DB	073H
	DB	068H
	DB	00H
	DB	075H
	DB	070H
	DB	064H
	DB	061H
	DB	074H
	DB	065H
	DB	043H
	DB	075H
	DB	072H
	DB	073H
	DB	06fH
	DB	072H
	DB	00H
	DB	061H
	DB	064H
	DB	064H
	DB	072H
	DB	065H
	DB	073H
	DB	073H
	DB	041H
	DB	072H
	DB	065H
	DB	061H
	DB	00H
	DB	061H
	DB	064H
	DB	064H
	DB	072H
	DB	065H
	DB	073H
	DB	073H
	DB	041H
	DB	072H
	DB	065H
	DB	061H
	DB	043H
	DB	06fH
	DB	06cH
	DB	06fH
	DB	072H
	DB	00H
	DB	061H
	DB	064H
	DB	064H
	DB	072H
	DB	065H
	DB	073H
	DB	073H
	DB	04fH
	DB	066H
	DB	066H
	DB	073H
	DB	065H
	DB	074H
	DB	00H
	DB	061H
	DB	064H
	DB	064H
	DB	072H
	DB	065H
	DB	073H
	DB	073H
	DB	057H
	DB	069H
	DB	064H
	DB	074H
	DB	068H
	DB	00H
	DB	061H
	DB	073H
	DB	063H
	DB	069H
	DB	069H
	DB	041H
	DB	072H
	DB	065H
	DB	061H
	DB	00H
	DB	062H
	DB	079H
	DB	074H
	DB	065H
	DB	073H
	DB	050H
	DB	065H
	DB	072H
	DB	04cH
	DB	069H
	DB	06eH
	DB	065H
	DB	00H
	DB	063H
	DB	075H
	DB	072H
	DB	073H
	DB	06fH
	DB	072H
	DB	050H
	DB	06fH
	DB	073H
	DB	069H
	DB	074H
	DB	069H
	DB	06fH
	DB	06eH
	DB	00H
	DB	064H
	DB	061H
	DB	074H
	DB	061H
	DB	00H
	DB	068H
	DB	065H
	DB	078H
	DB	043H
	DB	061H
	DB	070H
	DB	073H
	DB	00H
	DB	064H
	DB	079H
	DB	06eH
	DB	061H
	DB	06dH
	DB	069H
	DB	063H
	DB	042H
	DB	079H
	DB	074H
	DB	065H
	DB	073H
	DB	050H
	DB	065H
	DB	072H
	DB	04cH
	DB	069H
	DB	06eH
	DB	065H
	DB	00H
	DB	068H
	DB	069H
	DB	067H
	DB	068H
	DB	06cH
	DB	069H
	DB	067H
	DB	068H
	DB	074H
	DB	069H
	DB	06eH
	DB	067H
	DB	00H
	DB	068H
	DB	069H
	DB	067H
	DB	068H
	DB	06cH
	DB	069H
	DB	067H
	DB	068H
	DB	074H
	DB	069H
	DB	06eH
	DB	067H
	DB	043H
	DB	06fH
	DB	06cH
	DB	06fH
	DB	072H
	DB	00H
	DB	06fH
	DB	076H
	DB	065H
	DB	072H
	DB	077H
	DB	072H
	DB	069H
	DB	074H
	DB	065H
	DB	04dH
	DB	06fH
	DB	064H
	DB	065H
	DB	00H
	DB	073H
	DB	065H
	DB	06cH
	DB	065H
	DB	063H
	DB	074H
	DB	069H
	DB	06fH
	DB	06eH
	DB	043H
	DB	06fH
	DB	06cH
	DB	06fH
	DB	072H
	DB	00H
	DB	072H
	DB	065H
	DB	061H
	DB	064H
	DB	04fH
	DB	06eH
	DB	06cH
	DB	079H
	DB	00H
	DB	066H
	DB	06fH
	DB	06eH
	DB	074H
	DB	00H
	ORG $+3
?qt_meta_data_QHexEdit@@3QBIB DD 08H			; qt_meta_data_QHexEdit
	DD	00H
	DD	00H
	DD	00H
	DD	0bH
	DD	0eH
	DD	010H
	DD	058H
	DD	00H
	DD	00H
	DD	00H
	DD	00H
	DD	00H
	DD	04H
	DD	01H
	DD	01H
	DD	045H
	DD	02H
	DD	06H
	DD	04H
	DD	01H
	DD	048H
	DD	02H
	DD	06H
	DD	06H
	DD	00H
	DD	04bH
	DD	02H
	DD	06H
	DD	07H
	DD	01H
	DD	04cH
	DD	02H
	DD	06H
	DD	09H
	DD	00H
	DD	04fH
	DD	02H
	DD	0aH
	DD	0aH
	DD	00H
	DD	050H
	DD	02H
	DD	0aH
	DD	0bH
	DD	00H
	DD	051H
	DD	02H
	DD	08H
	DD	0cH
	DD	01H
	DD	052H
	DD	02H
	DD	08H
	DD	0cH
	DD	00H
	DD	055H
	DD	02H
	DD	028H
	DD	0eH
	DD	00H
	DD	056H
	DD	02H
	DD	08H
	DD	0fH
	DD	00H
	DD	057H
	DD	02H
	DD	08H
	DD	02bH
	DD	04H
	DD	03H
	DD	02bH
	DD	04H
	DD	05H
	DD	02bH
	DD	02bH
	DD	01H
	DD	08H
	DD	02bH
	DD	02bH
	DD	02bH
	DD	02bH
	DD	02H
	DD	0dH
	DD	02bH
	DD	02bH
	DD	02bH
	DD	010H
	DD	01H
	DD	095103H
	DD	011H
	DD	043H
	DD	095103H
	DD	012H
	DD	04H
	DD	095103H
	DD	013H
	DD	02H
	DD	095103H
	DD	014H
	DD	01H
	DD	095103H
	DD	015H
	DD	02H
	DD	095103H
	DD	016H
	DD	04H
	DD	095103H
	DD	017H
	DD	0cH
	DD	0495103H
	DD	018H
	DD	01H
	DD	095103H
	DD	019H
	DD	01H
	DD	095103H
	DD	01aH
	DD	01H
	DD	095103H
	DD	01bH
	DD	043H
	DD	095103H
	DD	01cH
	DD	01H
	DD	095103H
	DD	01dH
	DD	043H
	DD	095103H
	DD	01eH
	DD	01H
	DD	095103H
	DD	01fH
	DD	040H
	DD	095103H
	DD	00H
	DD	00H
	DD	00H
	DD	00H
	DD	00H
	DD	00H
	DD	00H
	DD	02H
	DD	00H
	DD	00H
	DD	00H
	DD	00H
	DD	00H
	DD	00H
	DD	00H
	DD	00H
	DD	00H
CONST	ENDS
PUBLIC	?metaObject@QHexEdit@@UEBAPEBUQMetaObject@@XZ	; QHexEdit::metaObject
PUBLIC	?qt_metacast@QHexEdit@@UEAAPEAXPEBD@Z		; QHexEdit::qt_metacast
PUBLIC	?qt_metacall@QHexEdit@@UEAAHW4Call@QMetaObject@@HPEAPEAX@Z ; QHexEdit::qt_metacall
PUBLIC	?tr@QHexEdit@@SA?AVQString@@PEBD0H@Z		; QHexEdit::tr
PUBLIC	?trUtf8@QHexEdit@@SA?AVQString@@PEBD0H@Z	; QHexEdit::trUtf8
PUBLIC	?qt_static_metacall@QHexEdit@@CAXPEAVQObject@@W4Call@QMetaObject@@HPEAPEAX@Z ; QHexEdit::qt_static_metacall
PUBLIC	?currentAddressChanged@QHexEdit@@QEAAX_J@Z	; QHexEdit::currentAddressChanged
PUBLIC	?currentSizeChanged@QHexEdit@@QEAAX_J@Z		; QHexEdit::currentSizeChanged
PUBLIC	?dataChanged@QHexEdit@@QEAAXXZ			; QHexEdit::dataChanged
PUBLIC	?overwriteModeChanged@QHexEdit@@QEAAX_N@Z	; QHexEdit::overwriteModeChanged
PUBLIC	??_FQHexEdit@@QEAAXXZ				; QHexEdit::`default constructor closure'
PUBLIC	?staticMetaObject@QHexEdit@@2UQMetaObject@@B	; QHexEdit::staticMetaObject
EXTRN	__imp_?tr@QMetaObject@@QEBA?AVQString@@PEBD0H@Z:PROC
EXTRN	__imp_?activate@QMetaObject@@SAXPEAVQObject@@PEBU1@HPEAPEAX@Z:PROC
EXTRN	__imp_??1QByteArray@@QEAA@XZ:PROC
EXTRN	__imp_??4QByteArray@@QEAAAEAV0@$$QEAV0@@Z:PROC
EXTRN	__imp_?dynamicMetaObject@QObjectData@@QEBAPEAUQMetaObject@@XZ:PROC
EXTRN	__imp_??4QColor@@QEAAAEAV0@$$QEAV0@@Z:PROC
EXTRN	__imp_??4QFont@@QEAAAEAV0@AEBV0@@Z:PROC
EXTRN	__imp_?qt_metacast@QAbstractScrollArea@@UEAAPEAXPEBD@Z:PROC
EXTRN	__imp_?qt_metacall@QAbstractScrollArea@@UEAAHW4Call@QMetaObject@@HPEAPEAX@Z:PROC
EXTRN	??0QHexEdit@@QEAA@PEAVQWidget@@@Z:PROC		; QHexEdit::QHexEdit
EXTRN	?setFont@QHexEdit@@QEAAXAEBVQFont@@@Z:PROC	; QHexEdit::setFont
EXTRN	?redo@QHexEdit@@QEAAXXZ:PROC			; QHexEdit::redo
EXTRN	?undo@QHexEdit@@QEAAXXZ:PROC			; QHexEdit::undo
EXTRN	?addressArea@QHexEdit@@QEAA_NXZ:PROC		; QHexEdit::addressArea
EXTRN	?setAddressArea@QHexEdit@@QEAAX_N@Z:PROC	; QHexEdit::setAddressArea
EXTRN	?addressAreaColor@QHexEdit@@QEAA?AVQColor@@XZ:PROC ; QHexEdit::addressAreaColor
EXTRN	?setAddressAreaColor@QHexEdit@@QEAAXAEBVQColor@@@Z:PROC ; QHexEdit::setAddressAreaColor
EXTRN	?addressOffset@QHexEdit@@QEAA_JXZ:PROC		; QHexEdit::addressOffset
EXTRN	?setAddressOffset@QHexEdit@@QEAAX_J@Z:PROC	; QHexEdit::setAddressOffset
EXTRN	?addressWidth@QHexEdit@@QEAAHXZ:PROC		; QHexEdit::addressWidth
EXTRN	?setAddressWidth@QHexEdit@@QEAAXH@Z:PROC	; QHexEdit::setAddressWidth
EXTRN	?asciiArea@QHexEdit@@QEAA_NXZ:PROC		; QHexEdit::asciiArea
EXTRN	?setAsciiArea@QHexEdit@@QEAAX_N@Z:PROC		; QHexEdit::setAsciiArea
EXTRN	?bytesPerLine@QHexEdit@@QEAAHXZ:PROC		; QHexEdit::bytesPerLine
EXTRN	?setBytesPerLine@QHexEdit@@QEAAXH@Z:PROC	; QHexEdit::setBytesPerLine
EXTRN	?cursorPosition@QHexEdit@@QEAA_JXZ:PROC		; QHexEdit::cursorPosition
EXTRN	?setCursorPosition@QHexEdit@@QEAAX_J@Z:PROC	; QHexEdit::setCursorPosition
EXTRN	?data@QHexEdit@@QEAA?AVQByteArray@@XZ:PROC	; QHexEdit::data
EXTRN	?setData@QHexEdit@@QEAAXAEBVQByteArray@@@Z:PROC	; QHexEdit::setData
EXTRN	?setHexCaps@QHexEdit@@QEAAX_N@Z:PROC		; QHexEdit::setHexCaps
EXTRN	?hexCaps@QHexEdit@@QEAA_NXZ:PROC		; QHexEdit::hexCaps
EXTRN	?setDynamicBytesPerLine@QHexEdit@@QEAAX_N@Z:PROC ; QHexEdit::setDynamicBytesPerLine
EXTRN	?dynamicBytesPerLine@QHexEdit@@QEAA_NXZ:PROC	; QHexEdit::dynamicBytesPerLine
EXTRN	?highlighting@QHexEdit@@QEAA_NXZ:PROC		; QHexEdit::highlighting
EXTRN	?setHighlighting@QHexEdit@@QEAAX_N@Z:PROC	; QHexEdit::setHighlighting
EXTRN	?highlightingColor@QHexEdit@@QEAA?AVQColor@@XZ:PROC ; QHexEdit::highlightingColor
EXTRN	?setHighlightingColor@QHexEdit@@QEAAXAEBVQColor@@@Z:PROC ; QHexEdit::setHighlightingColor
EXTRN	?overwriteMode@QHexEdit@@QEAA_NXZ:PROC		; QHexEdit::overwriteMode
EXTRN	?setOverwriteMode@QHexEdit@@QEAAX_N@Z:PROC	; QHexEdit::setOverwriteMode
EXTRN	?isReadOnly@QHexEdit@@QEAA_NXZ:PROC		; QHexEdit::isReadOnly
EXTRN	?setReadOnly@QHexEdit@@QEAAX_N@Z:PROC		; QHexEdit::setReadOnly
EXTRN	?selectionColor@QHexEdit@@QEAA?AVQColor@@XZ:PROC ; QHexEdit::selectionColor
EXTRN	?setSelectionColor@QHexEdit@@QEAAXAEBVQColor@@@Z:PROC ; QHexEdit::setSelectionColor
EXTRN	?adjust@QHexEdit@@AEAAXXZ:PROC			; QHexEdit::adjust
EXTRN	?dataChangedPrivate@QHexEdit@@AEAAXH@Z:PROC	; QHexEdit::dataChangedPrivate
EXTRN	?refresh@QHexEdit@@AEAAXXZ:PROC			; QHexEdit::refresh
EXTRN	?updateCursor@QHexEdit@@AEAAXXZ:PROC		; QHexEdit::updateCursor
EXTRN	__GSHandlerCheck:PROC
EXTRN	__security_check_cookie:PROC
EXTRN	__ImageBase:BYTE
EXTRN	__security_cookie:QWORD
;	COMDAT pdata
pdata	SEGMENT
$pdata$?qt_metacall@QHexEdit@@UEAAHW4Call@QMetaObject@@HPEAPEAX@Z DD imagerel $LN25
	DD	imagerel $LN25+176
	DD	imagerel $unwind$?qt_metacall@QHexEdit@@UEAAHW4Call@QMetaObject@@HPEAPEAX@Z
pdata	ENDS
;	COMDAT pdata
pdata	SEGMENT
$pdata$?tr@QHexEdit@@SA?AVQString@@PEBD0H@Z DD imagerel $LN7
	DD	imagerel $LN7+45
	DD	imagerel $unwind$?tr@QHexEdit@@SA?AVQString@@PEBD0H@Z
pdata	ENDS
;	COMDAT pdata
pdata	SEGMENT
$pdata$?trUtf8@QHexEdit@@SA?AVQString@@PEBD0H@Z DD imagerel $LN7
	DD	imagerel $LN7+45
	DD	imagerel $unwind$?trUtf8@QHexEdit@@SA?AVQString@@PEBD0H@Z
pdata	ENDS
;	COMDAT pdata
pdata	SEGMENT
$pdata$?qt_static_metacall@QHexEdit@@CAXPEAVQObject@@W4Call@QMetaObject@@HPEAPEAX@Z DD imagerel $LN105
	DD	imagerel $LN105+573
	DD	imagerel $unwind$?qt_static_metacall@QHexEdit@@CAXPEAVQObject@@W4Call@QMetaObject@@HPEAPEAX@Z
pdata	ENDS
;	COMDAT pdata
pdata	SEGMENT
$pdata$0$?qt_static_metacall@QHexEdit@@CAXPEAVQObject@@W4Call@QMetaObject@@HPEAPEAX@Z DD imagerel $LN105+573
	DD	imagerel $LN105+622
	DD	imagerel $chain$0$?qt_static_metacall@QHexEdit@@CAXPEAVQObject@@W4Call@QMetaObject@@HPEAPEAX@Z
pdata	ENDS
;	COMDAT pdata
pdata	SEGMENT
$pdata$1$?qt_static_metacall@QHexEdit@@CAXPEAVQObject@@W4Call@QMetaObject@@HPEAPEAX@Z DD imagerel $LN105+622
	DD	imagerel $LN105+640
	DD	imagerel $chain$1$?qt_static_metacall@QHexEdit@@CAXPEAVQObject@@W4Call@QMetaObject@@HPEAPEAX@Z
pdata	ENDS
;	COMDAT pdata
pdata	SEGMENT
$pdata$2$?qt_static_metacall@QHexEdit@@CAXPEAVQObject@@W4Call@QMetaObject@@HPEAPEAX@Z DD imagerel $LN105+640
	DD	imagerel $LN105+870
	DD	imagerel $chain$2$?qt_static_metacall@QHexEdit@@CAXPEAVQObject@@W4Call@QMetaObject@@HPEAPEAX@Z
pdata	ENDS
;	COMDAT pdata
pdata	SEGMENT
$pdata$3$?qt_static_metacall@QHexEdit@@CAXPEAVQObject@@W4Call@QMetaObject@@HPEAPEAX@Z DD imagerel $LN105+870
	DD	imagerel $LN105+1488
	DD	imagerel $chain$3$?qt_static_metacall@QHexEdit@@CAXPEAVQObject@@W4Call@QMetaObject@@HPEAPEAX@Z
pdata	ENDS
;	COMDAT pdata
pdata	SEGMENT
$pdata$?currentAddressChanged@QHexEdit@@QEAAX_J@Z DD imagerel $LN4
	DD	imagerel $LN4+54
	DD	imagerel $unwind$?currentAddressChanged@QHexEdit@@QEAAX_J@Z
pdata	ENDS
;	COMDAT pdata
pdata	SEGMENT
$pdata$?currentSizeChanged@QHexEdit@@QEAAX_J@Z DD imagerel $LN4
	DD	imagerel $LN4+57
	DD	imagerel $unwind$?currentSizeChanged@QHexEdit@@QEAAX_J@Z
pdata	ENDS
;	COMDAT pdata
pdata	SEGMENT
$pdata$?overwriteModeChanged@QHexEdit@@QEAAX_N@Z DD imagerel $LN4
	DD	imagerel $LN4+56
	DD	imagerel $unwind$?overwriteModeChanged@QHexEdit@@QEAAX_N@Z
pdata	ENDS
CRT$XCU	SEGMENT
??staticMetaObject$initializer$@QHexEdit@@2P6AXXZEA@@3P6AXXZEA DQ FLAT:??__E?staticMetaObject@QHexEdit@@2UQMetaObject@@B@@YAXXZ ; ??staticMetaObject$initializer$@QHexEdit@@2P6AXXZEA@@3P6AXXZEA
CRT$XCU	ENDS
_DATA	SEGMENT
?staticMetaObject@QHexEdit@@2UQMetaObject@@B DB 8 DUP(00H) ; QHexEdit::staticMetaObject
	DQ	FLAT:?qt_meta_stringdata_QHexEdit@@3Uqt_meta_stringdata_QHexEdit_t@@B
	DQ	FLAT:?qt_meta_data_QHexEdit@@3QBIB
	DQ	FLAT:?qt_static_metacall@QHexEdit@@CAXPEAVQObject@@W4Call@QMetaObject@@HPEAPEAX@Z
	DQ	0000000000000000H
	DQ	0000000000000000H
_DATA	ENDS
;	COMDAT xdata
xdata	SEGMENT
$unwind$?overwriteModeChanged@QHexEdit@@QEAAX_N@Z DD 010801H
	DD	06208H
xdata	ENDS
;	COMDAT xdata
xdata	SEGMENT
$unwind$?currentSizeChanged@QHexEdit@@QEAAX_J@Z DD 010901H
	DD	06209H
xdata	ENDS
;	COMDAT xdata
xdata	SEGMENT
$unwind$?currentAddressChanged@QHexEdit@@QEAAX_J@Z DD 010901H
	DD	06209H
xdata	ENDS
;	COMDAT xdata
xdata	SEGMENT
$chain$3$?qt_static_metacall@QHexEdit@@CAXPEAVQObject@@W4Call@QMetaObject@@HPEAPEAX@Z DD 021H
	DD	imagerel $LN105
	DD	imagerel $LN105+573
	DD	imagerel $unwind$?qt_static_metacall@QHexEdit@@CAXPEAVQObject@@W4Call@QMetaObject@@HPEAPEAX@Z
xdata	ENDS
;	COMDAT xdata
xdata	SEGMENT
$chain$2$?qt_static_metacall@QHexEdit@@CAXPEAVQObject@@W4Call@QMetaObject@@HPEAPEAX@Z DD 020021H
	DD	083400H
	DD	imagerel $LN105
	DD	imagerel $LN105+573
	DD	imagerel $unwind$?qt_static_metacall@QHexEdit@@CAXPEAVQObject@@W4Call@QMetaObject@@HPEAPEAX@Z
xdata	ENDS
;	COMDAT xdata
xdata	SEGMENT
$chain$1$?qt_static_metacall@QHexEdit@@CAXPEAVQObject@@W4Call@QMetaObject@@HPEAPEAX@Z DD 021H
	DD	imagerel $LN105
	DD	imagerel $LN105+573
	DD	imagerel $unwind$?qt_static_metacall@QHexEdit@@CAXPEAVQObject@@W4Call@QMetaObject@@HPEAPEAX@Z
xdata	ENDS
;	COMDAT xdata
xdata	SEGMENT
$chain$0$?qt_static_metacall@QHexEdit@@CAXPEAVQObject@@W4Call@QMetaObject@@HPEAPEAX@Z DD 020521H
	DD	083405H
	DD	imagerel $LN105
	DD	imagerel $LN105+573
	DD	imagerel $unwind$?qt_static_metacall@QHexEdit@@CAXPEAVQObject@@W4Call@QMetaObject@@HPEAPEAX@Z
xdata	ENDS
;	COMDAT xdata
xdata	SEGMENT
$unwind$?qt_static_metacall@QHexEdit@@CAXPEAVQObject@@W4Call@QMetaObject@@HPEAPEAX@Z DD 011319H
	DD	08204H
	DD	imagerel __GSHandlerCheck
	DD	030H
xdata	ENDS
;	COMDAT xdata
xdata	SEGMENT
$unwind$?trUtf8@QHexEdit@@SA?AVQString@@PEBD0H@Z DD 020601H
	DD	030025206H
xdata	ENDS
;	COMDAT xdata
xdata	SEGMENT
$unwind$?tr@QHexEdit@@SA?AVQString@@PEBD0H@Z DD 020601H
	DD	030025206H
xdata	ENDS
;	COMDAT xdata
xdata	SEGMENT
$unwind$?qt_metacall@QHexEdit@@UEAAHW4Call@QMetaObject@@HPEAPEAX@Z DD 081401H
	DD	086414H
	DD	075414H
	DD	063414H
	DD	070103214H
xdata	ENDS
; Function compile flags: /Ogtpy
;	COMDAT ??__E?staticMetaObject@QHexEdit@@2UQMetaObject@@B@@YAXXZ
text$di	SEGMENT
??__E?staticMetaObject@QHexEdit@@2UQMetaObject@@B@@YAXXZ PROC ; `dynamic initializer for 'QHexEdit::staticMetaObject'', COMDAT
; File F:\qt_projects\qhexedit2-master\example\Release\moc_qhexedit.cpp
; Line 266
	mov	rax, QWORD PTR __imp_?staticMetaObject@QAbstractScrollArea@@2UQMetaObject@@B
	mov	QWORD PTR ?staticMetaObject@QHexEdit@@2UQMetaObject@@B, rax
; Line 271
	ret	0
??__E?staticMetaObject@QHexEdit@@2UQMetaObject@@B@@YAXXZ ENDP ; `dynamic initializer for 'QHexEdit::staticMetaObject''
text$di	ENDS
; Function compile flags: /Ogtpy
;	COMDAT ??_FQHexEdit@@QEAAXXZ
_TEXT	SEGMENT
this$ = 8
??_FQHexEdit@@QEAAXXZ PROC				; QHexEdit::`default constructor closure', COMDAT
	xor	edx, edx
	jmp	??0QHexEdit@@QEAA@PEAVQWidget@@@Z	; QHexEdit::QHexEdit
??_FQHexEdit@@QEAAXXZ ENDP				; QHexEdit::`default constructor closure'
_TEXT	ENDS
; Function compile flags: /Ogtpy
;	COMDAT ?overwriteModeChanged@QHexEdit@@QEAAX_N@Z
_TEXT	SEGMENT
_a$ = 32
this$ = 64
_t1$ = 72
?overwriteModeChanged@QHexEdit@@QEAAX_N@Z PROC		; QHexEdit::overwriteModeChanged, COMDAT
; File F:\qt_projects\qhexedit2-master\example\Release\moc_qhexedit.cpp
; Line 344
$LN4:
	mov	BYTE PTR [rsp+16], dl
	sub	rsp, 56					; 00000038H
; Line 345
	lea	rax, QWORD PTR _t1$[rsp]
	mov	QWORD PTR _a$[rsp], 0
; Line 346
	lea	r9, QWORD PTR _a$[rsp]
	mov	QWORD PTR _a$[rsp+8], rax
	mov	r8d, 3
	lea	rdx, OFFSET FLAT:?staticMetaObject@QHexEdit@@2UQMetaObject@@B ; QHexEdit::staticMetaObject
	call	QWORD PTR __imp_?activate@QMetaObject@@SAXPEAVQObject@@PEBU1@HPEAPEAX@Z
; Line 347
	add	rsp, 56					; 00000038H
	ret	0
?overwriteModeChanged@QHexEdit@@QEAAX_N@Z ENDP		; QHexEdit::overwriteModeChanged
_TEXT	ENDS
; Function compile flags: /Ogtpy
;	COMDAT ?dataChanged@QHexEdit@@QEAAXXZ
_TEXT	SEGMENT
this$ = 8
?dataChanged@QHexEdit@@QEAAXXZ PROC			; QHexEdit::dataChanged, COMDAT
; File F:\qt_projects\qhexedit2-master\example\Release\moc_qhexedit.cpp
; Line 339
	xor	r9d, r9d
	lea	rdx, OFFSET FLAT:?staticMetaObject@QHexEdit@@2UQMetaObject@@B ; QHexEdit::staticMetaObject
	lea	r8d, QWORD PTR [r9+2]
	rex_jmp	QWORD PTR __imp_?activate@QMetaObject@@SAXPEAVQObject@@PEBU1@HPEAPEAX@Z
?dataChanged@QHexEdit@@QEAAXXZ ENDP			; QHexEdit::dataChanged
_TEXT	ENDS
; Function compile flags: /Ogtpy
;	COMDAT ?currentSizeChanged@QHexEdit@@QEAAX_J@Z
_TEXT	SEGMENT
_a$ = 32
this$ = 64
_t1$ = 72
?currentSizeChanged@QHexEdit@@QEAAX_J@Z PROC		; QHexEdit::currentSizeChanged, COMDAT
; File F:\qt_projects\qhexedit2-master\example\Release\moc_qhexedit.cpp
; Line 331
$LN4:
	mov	QWORD PTR [rsp+16], rdx
	sub	rsp, 56					; 00000038H
; Line 332
	lea	rax, QWORD PTR _t1$[rsp]
	mov	QWORD PTR _a$[rsp], 0
; Line 333
	lea	r9, QWORD PTR _a$[rsp]
	mov	QWORD PTR _a$[rsp+8], rax
	mov	r8d, 1
	lea	rdx, OFFSET FLAT:?staticMetaObject@QHexEdit@@2UQMetaObject@@B ; QHexEdit::staticMetaObject
	call	QWORD PTR __imp_?activate@QMetaObject@@SAXPEAVQObject@@PEBU1@HPEAPEAX@Z
; Line 334
	add	rsp, 56					; 00000038H
	ret	0
?currentSizeChanged@QHexEdit@@QEAAX_J@Z ENDP		; QHexEdit::currentSizeChanged
_TEXT	ENDS
; Function compile flags: /Ogtpy
;	COMDAT ?currentAddressChanged@QHexEdit@@QEAAX_J@Z
_TEXT	SEGMENT
_a$ = 32
this$ = 64
_t1$ = 72
?currentAddressChanged@QHexEdit@@QEAAX_J@Z PROC		; QHexEdit::currentAddressChanged, COMDAT
; File F:\qt_projects\qhexedit2-master\example\Release\moc_qhexedit.cpp
; Line 324
$LN4:
	mov	QWORD PTR [rsp+16], rdx
	sub	rsp, 56					; 00000038H
; Line 325
	lea	rax, QWORD PTR _t1$[rsp]
	mov	QWORD PTR _a$[rsp], 0
; Line 326
	lea	r9, QWORD PTR _a$[rsp]
	mov	QWORD PTR _a$[rsp+8], rax
	xor	r8d, r8d
	lea	rdx, OFFSET FLAT:?staticMetaObject@QHexEdit@@2UQMetaObject@@B ; QHexEdit::staticMetaObject
	call	QWORD PTR __imp_?activate@QMetaObject@@SAXPEAVQObject@@PEBU1@HPEAPEAX@Z
; Line 327
	add	rsp, 56					; 00000038H
	ret	0
?currentAddressChanged@QHexEdit@@QEAAX_J@Z ENDP		; QHexEdit::currentAddressChanged
_TEXT	ENDS
; Function compile flags: /Ogtpy
;	COMDAT ?qt_static_metacall@QHexEdit@@CAXPEAVQObject@@W4Call@QMetaObject@@HPEAPEAX@Z
_TEXT	SEGMENT
$T1 = 32
$T2 = 32
$T3 = 32
$T4 = 32
__$ArrayPad$ = 48
_o$ = 80
_c$ = 88
_id$ = 96
_a$ = 104
?qt_static_metacall@QHexEdit@@CAXPEAVQObject@@W4Call@QMetaObject@@HPEAPEAX@Z PROC ; QHexEdit::qt_static_metacall, COMDAT
; File F:\qt_projects\qhexedit2-master\example\Release\moc_qhexedit.cpp
; Line 164
$LN105:
	sub	rsp, 72					; 00000048H
	mov	rax, QWORD PTR __security_cookie
	xor	rax, rsp
	mov	QWORD PTR __$ArrayPad$[rsp], rax
; Line 165
	test	edx, edx
	jne	$LN8@qt_static_
; Line 168
	cmp	r8d, 10
	ja	$LN65@qt_static_
	movsxd	rax, r8d
	lea	r8, OFFSET FLAT:__ImageBase
	mov	eax, DWORD PTR $LN100@qt_static_[r8+rax*4]
	add	rax, r8
	jmp	rax
$LN10@qt_static_:
; Line 169
	mov	rdx, QWORD PTR [r9+8]
	mov	rdx, QWORD PTR [rdx]
	call	?currentAddressChanged@QHexEdit@@QEAAX_J@Z ; QHexEdit::currentAddressChanged
; Line 263
	mov	rcx, QWORD PTR __$ArrayPad$[rsp]
	xor	rcx, rsp
	call	__security_check_cookie
	add	rsp, 72					; 00000048H
	ret	0
$LN11@qt_static_:
; Line 170
	mov	rdx, QWORD PTR [r9+8]
	mov	rdx, QWORD PTR [rdx]
	call	?currentSizeChanged@QHexEdit@@QEAAX_J@Z	; QHexEdit::currentSizeChanged
; Line 263
	mov	rcx, QWORD PTR __$ArrayPad$[rsp]
	xor	rcx, rsp
	call	__security_check_cookie
	add	rsp, 72					; 00000048H
	ret	0
$LN12@qt_static_:
; Line 339
	xor	r9d, r9d
	lea	rdx, OFFSET FLAT:?staticMetaObject@QHexEdit@@2UQMetaObject@@B ; QHexEdit::staticMetaObject
	lea	r8d, QWORD PTR [r9+2]
	call	QWORD PTR __imp_?activate@QMetaObject@@SAXPEAVQObject@@PEBU1@HPEAPEAX@Z
; Line 263
	mov	rcx, QWORD PTR __$ArrayPad$[rsp]
	xor	rcx, rsp
	call	__security_check_cookie
	add	rsp, 72					; 00000048H
	ret	0
$LN13@qt_static_:
; Line 172
	mov	rax, QWORD PTR [r9+8]
	movzx	edx, BYTE PTR [rax]
	call	?overwriteModeChanged@QHexEdit@@QEAAX_N@Z ; QHexEdit::overwriteModeChanged
; Line 263
	mov	rcx, QWORD PTR __$ArrayPad$[rsp]
	xor	rcx, rsp
	call	__security_check_cookie
	add	rsp, 72					; 00000048H
	ret	0
$LN14@qt_static_:
; Line 173
	call	?redo@QHexEdit@@QEAAXXZ			; QHexEdit::redo
; Line 263
	mov	rcx, QWORD PTR __$ArrayPad$[rsp]
	xor	rcx, rsp
	call	__security_check_cookie
	add	rsp, 72					; 00000048H
	ret	0
$LN15@qt_static_:
; Line 174
	call	?undo@QHexEdit@@QEAAXXZ			; QHexEdit::undo
; Line 263
	mov	rcx, QWORD PTR __$ArrayPad$[rsp]
	xor	rcx, rsp
	call	__security_check_cookie
	add	rsp, 72					; 00000048H
	ret	0
$LN16@qt_static_:
; Line 175
	call	?adjust@QHexEdit@@AEAAXXZ		; QHexEdit::adjust
; Line 263
	mov	rcx, QWORD PTR __$ArrayPad$[rsp]
	xor	rcx, rsp
	call	__security_check_cookie
	add	rsp, 72					; 00000048H
	ret	0
$LN17@qt_static_:
; Line 176
	mov	rax, QWORD PTR [r9+8]
	mov	edx, DWORD PTR [rax]
	call	?dataChangedPrivate@QHexEdit@@AEAAXH@Z	; QHexEdit::dataChangedPrivate
; Line 263
	mov	rcx, QWORD PTR __$ArrayPad$[rsp]
	xor	rcx, rsp
	call	__security_check_cookie
	add	rsp, 72					; 00000048H
	ret	0
$LN18@qt_static_:
; Line 177
	xor	edx, edx
	call	?dataChangedPrivate@QHexEdit@@AEAAXH@Z	; QHexEdit::dataChangedPrivate
; Line 263
	mov	rcx, QWORD PTR __$ArrayPad$[rsp]
	xor	rcx, rsp
	call	__security_check_cookie
	add	rsp, 72					; 00000048H
	ret	0
$LN19@qt_static_:
; Line 178
	call	?refresh@QHexEdit@@AEAAXXZ		; QHexEdit::refresh
; Line 263
	mov	rcx, QWORD PTR __$ArrayPad$[rsp]
	xor	rcx, rsp
	call	__security_check_cookie
	add	rsp, 72					; 00000048H
	ret	0
$LN20@qt_static_:
; Line 179
	call	?updateCursor@QHexEdit@@AEAAXXZ		; QHexEdit::updateCursor
; Line 263
	mov	rcx, QWORD PTR __$ArrayPad$[rsp]
	xor	rcx, rsp
	call	__security_check_cookie
	add	rsp, 72					; 00000048H
	ret	0
$LN8@qt_static_:
; Line 182
	cmp	edx, 10
	jne	$LN22@qt_static_
; Line 186
	mov	rcx, QWORD PTR [r9+8]
	lea	r8, OFFSET FLAT:?currentAddressChanged@QHexEdit@@QEAAX_J@Z ; QHexEdit::currentAddressChanged
	mov	rdx, QWORD PTR [r9]
	mov	rax, QWORD PTR [rcx]
	cmp	rax, r8
	jne	SHORT $LN24@qt_static_
	test	rax, rax
	je	SHORT $LN91@qt_static_
	cmp	DWORD PTR [rcx+8], 0
	jne	SHORT $LN24@qt_static_
$LN91@qt_static_:
; Line 187
	mov	DWORD PTR [rdx], 0
; Line 263
	mov	rcx, QWORD PTR __$ArrayPad$[rsp]
	xor	rcx, rsp
	call	__security_check_cookie
	add	rsp, 72					; 00000048H
	ret	0
$LN24@qt_static_:
; Line 193
	lea	r8, OFFSET FLAT:?currentSizeChanged@QHexEdit@@QEAAX_J@Z ; QHexEdit::currentSizeChanged
	cmp	rax, r8
	jne	SHORT $LN25@qt_static_
	test	rax, rax
	je	SHORT $LN92@qt_static_
	cmp	DWORD PTR [rcx+8], 0
	jne	SHORT $LN25@qt_static_
$LN92@qt_static_:
; Line 194
	mov	DWORD PTR [rdx], 1
; Line 263
	mov	rcx, QWORD PTR __$ArrayPad$[rsp]
	xor	rcx, rsp
	call	__security_check_cookie
	add	rsp, 72					; 00000048H
	ret	0
$LN25@qt_static_:
; Line 200
	lea	r8, OFFSET FLAT:?dataChanged@QHexEdit@@QEAAXXZ ; QHexEdit::dataChanged
	cmp	rax, r8
	jne	SHORT $LN26@qt_static_
	test	rax, rax
	je	SHORT $LN93@qt_static_
	cmp	DWORD PTR [rcx+8], 0
	jne	SHORT $LN26@qt_static_
$LN93@qt_static_:
; Line 201
	mov	DWORD PTR [rdx], 2
; Line 263
	mov	rcx, QWORD PTR __$ArrayPad$[rsp]
	xor	rcx, rsp
	call	__security_check_cookie
	add	rsp, 72					; 00000048H
	ret	0
$LN26@qt_static_:
; Line 207
	lea	r8, OFFSET FLAT:?overwriteModeChanged@QHexEdit@@QEAAX_N@Z ; QHexEdit::overwriteModeChanged
	cmp	rax, r8
	jne	SHORT $LN65@qt_static_
	test	rax, rax
	je	SHORT $LN94@qt_static_
	cmp	DWORD PTR [rcx+8], 0
	jne	SHORT $LN65@qt_static_
$LN94@qt_static_:
; Line 208
	mov	DWORD PTR [rdx], 3
; Line 263
	mov	rcx, QWORD PTR __$ArrayPad$[rsp]
	xor	rcx, rsp
	call	__security_check_cookie
	add	rsp, 72					; 00000048H
	ret	0
$LN22@qt_static_:
; Line 214
	cmp	edx, 1
	jne	$LN28@qt_static_
; Line 217
	mov	QWORD PTR [rsp+64], rbx
	mov	rbx, QWORD PTR [r9]
; Line 218
	cmp	r8d, 15
	ja	SHORT $LN101@qt_static_
	movsxd	rax, r8d
	lea	r8, OFFSET FLAT:__ImageBase
	mov	eax, DWORD PTR $LN99@qt_static_[r8+rax*4]
	add	rax, r8
	jmp	rax
$LN30@qt_static_:
; Line 219
	call	?addressArea@QHexEdit@@QEAA_NXZ		; QHexEdit::addressArea
$LN102@qt_static_:
; Line 231
	mov	BYTE PTR [rbx], al
$LN101@qt_static_:
	mov	rbx, QWORD PTR [rsp+64]
$LN65@qt_static_:
; Line 263
	mov	rcx, QWORD PTR __$ArrayPad$[rsp]
	xor	rcx, rsp
	call	__security_check_cookie
	add	rsp, 72					; 00000048H
	ret	0
$LN31@qt_static_:
; Line 220
	lea	rdx, QWORD PTR $T4[rsp]
	call	?addressAreaColor@QHexEdit@@QEAA?AVQColor@@XZ ; QHexEdit::addressAreaColor
	mov	rdx, rax
	mov	rcx, rbx
	call	QWORD PTR __imp_??4QColor@@QEAAAEAV0@$$QEAV0@@Z
	jmp	SHORT $LN101@qt_static_
$LN32@qt_static_:
; Line 221
	call	?addressOffset@QHexEdit@@QEAA_JXZ	; QHexEdit::addressOffset
	mov	QWORD PTR [rbx], rax
	jmp	SHORT $LN101@qt_static_
$LN33@qt_static_:
; Line 222
	call	?addressWidth@QHexEdit@@QEAAHXZ		; QHexEdit::addressWidth
	mov	DWORD PTR [rbx], eax
	jmp	SHORT $LN101@qt_static_
$LN34@qt_static_:
; Line 223
	call	?asciiArea@QHexEdit@@QEAA_NXZ		; QHexEdit::asciiArea
	jmp	SHORT $LN102@qt_static_
$LN35@qt_static_:
; Line 224
	call	?bytesPerLine@QHexEdit@@QEAAHXZ		; QHexEdit::bytesPerLine
	mov	DWORD PTR [rbx], eax
	jmp	SHORT $LN101@qt_static_
$LN36@qt_static_:
; Line 225
	call	?cursorPosition@QHexEdit@@QEAA_JXZ	; QHexEdit::cursorPosition
	mov	QWORD PTR [rbx], rax
	jmp	SHORT $LN101@qt_static_
$LN37@qt_static_:
; Line 226
	lea	rdx, QWORD PTR $T3[rsp]
	call	?data@QHexEdit@@QEAA?AVQByteArray@@XZ	; QHexEdit::data
	mov	rdx, rax
	mov	rcx, rbx
	call	QWORD PTR __imp_??4QByteArray@@QEAAAEAV0@$$QEAV0@@Z
	lea	rcx, QWORD PTR $T3[rsp]
	call	QWORD PTR __imp_??1QByteArray@@QEAA@XZ
	jmp	SHORT $LN101@qt_static_
$LN38@qt_static_:
; Line 227
	call	?hexCaps@QHexEdit@@QEAA_NXZ		; QHexEdit::hexCaps
	jmp	$LN102@qt_static_
$LN39@qt_static_:
; Line 228
	call	?dynamicBytesPerLine@QHexEdit@@QEAA_NXZ	; QHexEdit::dynamicBytesPerLine
	jmp	$LN102@qt_static_
$LN40@qt_static_:
; Line 229
	call	?highlighting@QHexEdit@@QEAA_NXZ	; QHexEdit::highlighting
	jmp	$LN102@qt_static_
$LN41@qt_static_:
; Line 230
	lea	rdx, QWORD PTR $T2[rsp]
	call	?highlightingColor@QHexEdit@@QEAA?AVQColor@@XZ ; QHexEdit::highlightingColor
	mov	rdx, rax
	mov	rcx, rbx
	call	QWORD PTR __imp_??4QColor@@QEAAAEAV0@$$QEAV0@@Z
	jmp	$LN101@qt_static_
$LN42@qt_static_:
; Line 231
	call	?overwriteMode@QHexEdit@@QEAA_NXZ	; QHexEdit::overwriteMode
	jmp	$LN102@qt_static_
$LN43@qt_static_:
; Line 232
	lea	rdx, QWORD PTR $T1[rsp]
	call	?selectionColor@QHexEdit@@QEAA?AVQColor@@XZ ; QHexEdit::selectionColor
	mov	rdx, rax
	mov	rcx, rbx
	call	QWORD PTR __imp_??4QColor@@QEAAAEAV0@$$QEAV0@@Z
	jmp	$LN101@qt_static_
$LN44@qt_static_:
; Line 233
	call	?isReadOnly@QHexEdit@@QEAA_NXZ		; QHexEdit::isReadOnly
	jmp	$LN102@qt_static_
$LN45@qt_static_:
; File F:\QT_SW\5.12.4\MSVC2017_64\include\QtWidgets\qwidget.h
; Line 800
	mov	rdx, QWORD PTR [rcx+40]
; File F:\qt_projects\qhexedit2-master\example\Release\moc_qhexedit.cpp
; Line 234
	mov	rcx, rbx
; File F:\QT_SW\5.12.4\MSVC2017_64\include\QtWidgets\qwidget.h
; Line 800
	add	rdx, 56					; 00000038H
; File F:\qt_projects\qhexedit2-master\example\Release\moc_qhexedit.cpp
; Line 234
	call	QWORD PTR __imp_??4QFont@@QEAAAEAV0@AEBV0@@Z
; Line 237
	jmp	$LN101@qt_static_
$LN28@qt_static_:
	cmp	edx, 2
	jne	$LN65@qt_static_
; Line 240
	mov	rdx, QWORD PTR [r9]
; Line 241
	cmp	r8d, 15
	ja	$LN65@qt_static_
	movsxd	rax, r8d
	lea	r8, OFFSET FLAT:__ImageBase
	mov	eax, DWORD PTR $LN98@qt_static_[r8+rax*4]
	add	rax, r8
	jmp	rax
$LN49@qt_static_:
; Line 242
	movzx	edx, BYTE PTR [rdx]
	call	?setAddressArea@QHexEdit@@QEAAX_N@Z	; QHexEdit::setAddressArea
; Line 263
	mov	rcx, QWORD PTR __$ArrayPad$[rsp]
	xor	rcx, rsp
	call	__security_check_cookie
	add	rsp, 72					; 00000048H
	ret	0
$LN50@qt_static_:
; Line 243
	call	?setAddressAreaColor@QHexEdit@@QEAAXAEBVQColor@@@Z ; QHexEdit::setAddressAreaColor
; Line 263
	mov	rcx, QWORD PTR __$ArrayPad$[rsp]
	xor	rcx, rsp
	call	__security_check_cookie
	add	rsp, 72					; 00000048H
	ret	0
$LN51@qt_static_:
; Line 244
	mov	rdx, QWORD PTR [rdx]
	call	?setAddressOffset@QHexEdit@@QEAAX_J@Z	; QHexEdit::setAddressOffset
; Line 263
	mov	rcx, QWORD PTR __$ArrayPad$[rsp]
	xor	rcx, rsp
	call	__security_check_cookie
	add	rsp, 72					; 00000048H
	ret	0
$LN52@qt_static_:
; Line 245
	mov	edx, DWORD PTR [rdx]
	call	?setAddressWidth@QHexEdit@@QEAAXH@Z	; QHexEdit::setAddressWidth
; Line 263
	mov	rcx, QWORD PTR __$ArrayPad$[rsp]
	xor	rcx, rsp
	call	__security_check_cookie
	add	rsp, 72					; 00000048H
	ret	0
$LN53@qt_static_:
; Line 246
	movzx	edx, BYTE PTR [rdx]
	call	?setAsciiArea@QHexEdit@@QEAAX_N@Z	; QHexEdit::setAsciiArea
; Line 263
	mov	rcx, QWORD PTR __$ArrayPad$[rsp]
	xor	rcx, rsp
	call	__security_check_cookie
	add	rsp, 72					; 00000048H
	ret	0
$LN54@qt_static_:
; Line 247
	mov	edx, DWORD PTR [rdx]
	call	?setBytesPerLine@QHexEdit@@QEAAXH@Z	; QHexEdit::setBytesPerLine
; Line 263
	mov	rcx, QWORD PTR __$ArrayPad$[rsp]
	xor	rcx, rsp
	call	__security_check_cookie
	add	rsp, 72					; 00000048H
	ret	0
$LN55@qt_static_:
; Line 248
	mov	rdx, QWORD PTR [rdx]
	call	?setCursorPosition@QHexEdit@@QEAAX_J@Z	; QHexEdit::setCursorPosition
; Line 263
	mov	rcx, QWORD PTR __$ArrayPad$[rsp]
	xor	rcx, rsp
	call	__security_check_cookie
	add	rsp, 72					; 00000048H
	ret	0
$LN56@qt_static_:
; Line 249
	call	?setData@QHexEdit@@QEAAXAEBVQByteArray@@@Z ; QHexEdit::setData
; Line 263
	mov	rcx, QWORD PTR __$ArrayPad$[rsp]
	xor	rcx, rsp
	call	__security_check_cookie
	add	rsp, 72					; 00000048H
	ret	0
$LN57@qt_static_:
; Line 250
	movzx	edx, BYTE PTR [rdx]
	call	?setHexCaps@QHexEdit@@QEAAX_N@Z		; QHexEdit::setHexCaps
; Line 263
	mov	rcx, QWORD PTR __$ArrayPad$[rsp]
	xor	rcx, rsp
	call	__security_check_cookie
	add	rsp, 72					; 00000048H
	ret	0
$LN58@qt_static_:
; Line 251
	movzx	edx, BYTE PTR [rdx]
	call	?setDynamicBytesPerLine@QHexEdit@@QEAAX_N@Z ; QHexEdit::setDynamicBytesPerLine
; Line 263
	mov	rcx, QWORD PTR __$ArrayPad$[rsp]
	xor	rcx, rsp
	call	__security_check_cookie
	add	rsp, 72					; 00000048H
	ret	0
$LN59@qt_static_:
; Line 252
	movzx	edx, BYTE PTR [rdx]
	call	?setHighlighting@QHexEdit@@QEAAX_N@Z	; QHexEdit::setHighlighting
; Line 263
	mov	rcx, QWORD PTR __$ArrayPad$[rsp]
	xor	rcx, rsp
	call	__security_check_cookie
	add	rsp, 72					; 00000048H
	ret	0
$LN60@qt_static_:
; Line 253
	call	?setHighlightingColor@QHexEdit@@QEAAXAEBVQColor@@@Z ; QHexEdit::setHighlightingColor
; Line 263
	mov	rcx, QWORD PTR __$ArrayPad$[rsp]
	xor	rcx, rsp
	call	__security_check_cookie
	add	rsp, 72					; 00000048H
	ret	0
$LN61@qt_static_:
; Line 254
	movzx	edx, BYTE PTR [rdx]
	call	?setOverwriteMode@QHexEdit@@QEAAX_N@Z	; QHexEdit::setOverwriteMode
; Line 263
	mov	rcx, QWORD PTR __$ArrayPad$[rsp]
	xor	rcx, rsp
	call	__security_check_cookie
	add	rsp, 72					; 00000048H
	ret	0
$LN62@qt_static_:
; Line 255
	call	?setSelectionColor@QHexEdit@@QEAAXAEBVQColor@@@Z ; QHexEdit::setSelectionColor
; Line 263
	mov	rcx, QWORD PTR __$ArrayPad$[rsp]
	xor	rcx, rsp
	call	__security_check_cookie
	add	rsp, 72					; 00000048H
	ret	0
$LN63@qt_static_:
; Line 256
	movzx	edx, BYTE PTR [rdx]
	call	?setReadOnly@QHexEdit@@QEAAX_N@Z	; QHexEdit::setReadOnly
; Line 263
	mov	rcx, QWORD PTR __$ArrayPad$[rsp]
	xor	rcx, rsp
	call	__security_check_cookie
	add	rsp, 72					; 00000048H
	ret	0
$LN64@qt_static_:
; Line 257
	call	?setFont@QHexEdit@@QEAAXAEBVQFont@@@Z	; QHexEdit::setFont
; Line 263
	mov	rcx, QWORD PTR __$ArrayPad$[rsp]
	xor	rcx, rsp
	call	__security_check_cookie
	add	rsp, 72					; 00000048H
	ret	0
	npad	2
$LN100@qt_static_:
	DD	$LN10@qt_static_
	DD	$LN11@qt_static_
	DD	$LN12@qt_static_
	DD	$LN13@qt_static_
	DD	$LN14@qt_static_
	DD	$LN15@qt_static_
	DD	$LN16@qt_static_
	DD	$LN17@qt_static_
	DD	$LN18@qt_static_
	DD	$LN19@qt_static_
	DD	$LN20@qt_static_
$LN99@qt_static_:
	DD	$LN30@qt_static_
	DD	$LN31@qt_static_
	DD	$LN32@qt_static_
	DD	$LN33@qt_static_
	DD	$LN34@qt_static_
	DD	$LN35@qt_static_
	DD	$LN36@qt_static_
	DD	$LN37@qt_static_
	DD	$LN38@qt_static_
	DD	$LN39@qt_static_
	DD	$LN40@qt_static_
	DD	$LN41@qt_static_
	DD	$LN42@qt_static_
	DD	$LN43@qt_static_
	DD	$LN44@qt_static_
	DD	$LN45@qt_static_
$LN98@qt_static_:
	DD	$LN49@qt_static_
	DD	$LN50@qt_static_
	DD	$LN51@qt_static_
	DD	$LN52@qt_static_
	DD	$LN53@qt_static_
	DD	$LN54@qt_static_
	DD	$LN55@qt_static_
	DD	$LN56@qt_static_
	DD	$LN57@qt_static_
	DD	$LN58@qt_static_
	DD	$LN59@qt_static_
	DD	$LN60@qt_static_
	DD	$LN61@qt_static_
	DD	$LN62@qt_static_
	DD	$LN63@qt_static_
	DD	$LN64@qt_static_
?qt_static_metacall@QHexEdit@@CAXPEAVQObject@@W4Call@QMetaObject@@HPEAPEAX@Z ENDP ; QHexEdit::qt_static_metacall
_TEXT	ENDS
; Function compile flags: /Ogtpy
;	COMDAT ?trUtf8@QHexEdit@@SA?AVQString@@PEBD0H@Z
_TEXT	SEGMENT
__$ReturnUdt$ = 64
s$ = 72
c$ = 80
n$ = 88
?trUtf8@QHexEdit@@SA?AVQString@@PEBD0H@Z PROC		; QHexEdit::trUtf8, COMDAT
; File F:\qt_projects\qhexedit2-master\src\qhexedit.h
; Line 61
$LN7:
	push	rbx
	sub	rsp, 48					; 00000030H
	mov	DWORD PTR [rsp+32], r9d
	mov	rbx, rcx
	mov	r9, r8
	mov	r8, rdx
	mov	rdx, rcx
	lea	rcx, OFFSET FLAT:?staticMetaObject@QHexEdit@@2UQMetaObject@@B ; QHexEdit::staticMetaObject
	call	QWORD PTR __imp_?tr@QMetaObject@@QEBA?AVQString@@PEBD0H@Z
	mov	rax, rbx
	add	rsp, 48					; 00000030H
	pop	rbx
	ret	0
?trUtf8@QHexEdit@@SA?AVQString@@PEBD0H@Z ENDP		; QHexEdit::trUtf8
_TEXT	ENDS
; Function compile flags: /Ogtpy
;	COMDAT ?tr@QHexEdit@@SA?AVQString@@PEBD0H@Z
_TEXT	SEGMENT
__$ReturnUdt$ = 64
s$ = 72
c$ = 80
n$ = 88
?tr@QHexEdit@@SA?AVQString@@PEBD0H@Z PROC		; QHexEdit::tr, COMDAT
; File F:\qt_projects\qhexedit2-master\src\qhexedit.h
; Line 61
$LN7:
	push	rbx
	sub	rsp, 48					; 00000030H
	mov	DWORD PTR [rsp+32], r9d
	mov	rbx, rcx
	mov	r9, r8
	mov	r8, rdx
	mov	rdx, rcx
	lea	rcx, OFFSET FLAT:?staticMetaObject@QHexEdit@@2UQMetaObject@@B ; QHexEdit::staticMetaObject
	call	QWORD PTR __imp_?tr@QMetaObject@@QEBA?AVQString@@PEBD0H@Z
	mov	rax, rbx
	add	rsp, 48					; 00000030H
	pop	rbx
	ret	0
?tr@QHexEdit@@SA?AVQString@@PEBD0H@Z ENDP		; QHexEdit::tr
_TEXT	ENDS
; Function compile flags: /Ogtpy
;	COMDAT ?qt_metacall@QHexEdit@@UEAAHW4Call@QMetaObject@@HPEAPEAX@Z
_TEXT	SEGMENT
this$ = 48
_c$ = 56
_id$ = 64
_a$ = 72
?qt_metacall@QHexEdit@@UEAAHW4Call@QMetaObject@@HPEAPEAX@Z PROC ; QHexEdit::qt_metacall, COMDAT
; File F:\qt_projects\qhexedit2-master\example\Release\moc_qhexedit.cpp
; Line 289
$LN25:
	mov	QWORD PTR [rsp+8], rbx
	mov	QWORD PTR [rsp+16], rbp
	mov	QWORD PTR [rsp+24], rsi
	push	rdi
	sub	rsp, 32					; 00000020H
	mov	rsi, r9
	mov	edi, edx
	mov	rbp, rcx
; Line 290
	call	QWORD PTR __imp_?qt_metacall@QAbstractScrollArea@@UEAAHW4Call@QMetaObject@@HPEAPEAX@Z
	mov	ebx, eax
; Line 291
	test	eax, eax
	js	SHORT $LN1@qt_metacal
; Line 293
	test	edi, edi
	jne	SHORT $LN3@qt_metacal
; Line 294
	cmp	eax, 11
	jge	SHORT $LN8@qt_metacal
; Line 295
	mov	r9, rsi
	mov	r8d, eax
	xor	edx, edx
	mov	rcx, rbp
	call	?qt_static_metacall@QHexEdit@@CAXPEAVQObject@@W4Call@QMetaObject@@HPEAPEAX@Z ; QHexEdit::qt_static_metacall
; Line 296
	sub	ebx, 11
	jmp	SHORT $LN20@qt_metacal
$LN3@qt_metacal:
; Line 297
	cmp	edi, 12
	jne	SHORT $LN6@qt_metacal
; Line 298
	cmp	ebx, 11
	jge	SHORT $LN8@qt_metacal
; Line 299
	mov	rax, QWORD PTR [rsi]
	mov	DWORD PTR [rax], -1
$LN8@qt_metacal:
; Line 300
	sub	ebx, 11
; Line 301
	jmp	SHORT $LN20@qt_metacal
$LN6@qt_metacal:
; Line 304
	lea	eax, DWORD PTR [rdi-1]
	cmp	eax, 2
	jbe	SHORT $LN11@qt_metacal
	cmp	edi, 11
	je	SHORT $LN11@qt_metacal
; Line 307
	cmp	edi, 4
	je	SHORT $LN23@qt_metacal
; Line 309
	cmp	edi, 5
	je	SHORT $LN23@qt_metacal
; Line 311
	cmp	edi, 6
	je	SHORT $LN23@qt_metacal
; Line 313
	cmp	edi, 7
	je	SHORT $LN23@qt_metacal
; Line 315
	cmp	edi, 8
	jne	SHORT $LN20@qt_metacal
; Line 316
	jmp	SHORT $LN23@qt_metacal
$LN11@qt_metacal:
; Line 305
	mov	r9, rsi
	mov	r8d, ebx
	mov	edx, edi
	mov	rcx, rbp
	call	?qt_static_metacall@QHexEdit@@CAXPEAVQObject@@W4Call@QMetaObject@@HPEAPEAX@Z ; QHexEdit::qt_static_metacall
$LN23@qt_metacal:
; Line 319
	sub	ebx, 16
$LN20@qt_metacal:
	mov	eax, ebx
$LN1@qt_metacal:
; Line 320
	mov	rbx, QWORD PTR [rsp+48]
	mov	rbp, QWORD PTR [rsp+56]
	mov	rsi, QWORD PTR [rsp+64]
	add	rsp, 32					; 00000020H
	pop	rdi
	ret	0
?qt_metacall@QHexEdit@@UEAAHW4Call@QMetaObject@@HPEAPEAX@Z ENDP ; QHexEdit::qt_metacall
_TEXT	ENDS
; Function compile flags: /Ogtpy
;	COMDAT ?qt_metacast@QHexEdit@@UEAAPEAXPEBD@Z
_TEXT	SEGMENT
this$ = 8
_clname$ = 16
?qt_metacast@QHexEdit@@UEAAPEAXPEBD@Z PROC		; QHexEdit::qt_metacast, COMDAT
; File F:\qt_projects\qhexedit2-master\example\Release\moc_qhexedit.cpp
; Line 281
	mov	r9, rdx
	mov	r10, rcx
; Line 282
	test	rdx, rdx
	jne	SHORT $LN2@qt_metacas
	xor	eax, eax
; Line 286
	ret	0
$LN2@qt_metacas:
; Line 283
	lea	r8, OFFSET FLAT:?qt_meta_stringdata_QHexEdit@@3Uqt_meta_stringdata_QHexEdit_t@@B+768
	mov	rax, r9
	sub	r8, r9
	npad	5
$LL5@qt_metacas:
	movzx	edx, BYTE PTR [rax]
	movzx	ecx, BYTE PTR [rax+r8]
	sub	edx, ecx
	jne	SHORT $LN6@qt_metacas
	inc	rax
	test	ecx, ecx
	jne	SHORT $LL5@qt_metacas
$LN6@qt_metacas:
	test	edx, edx
	jne	SHORT $LN3@qt_metacas
; Line 284
	mov	rax, r10
; Line 286
	ret	0
$LN3@qt_metacas:
; Line 285
	mov	rdx, r9
	mov	rcx, r10
	rex_jmp	QWORD PTR __imp_?qt_metacast@QAbstractScrollArea@@UEAAPEAXPEBD@Z
?qt_metacast@QHexEdit@@UEAAPEAXPEBD@Z ENDP		; QHexEdit::qt_metacast
_TEXT	ENDS
; Function compile flags: /Ogtpy
;	COMDAT ?metaObject@QHexEdit@@UEBAPEBUQMetaObject@@XZ
_TEXT	SEGMENT
this$ = 8
?metaObject@QHexEdit@@UEBAPEBUQMetaObject@@XZ PROC	; QHexEdit::metaObject, COMDAT
; File F:\qt_projects\qhexedit2-master\example\Release\moc_qhexedit.cpp
; Line 277
	mov	rcx, QWORD PTR [rcx+8]
	cmp	QWORD PTR [rcx+40], 0
	je	SHORT $LN3@metaObject
	rex_jmp	QWORD PTR __imp_?dynamicMetaObject@QObjectData@@QEBAPEAUQMetaObject@@XZ
$LN3@metaObject:
	lea	rax, OFFSET FLAT:?staticMetaObject@QHexEdit@@2UQMetaObject@@B ; QHexEdit::staticMetaObject
; Line 278
	ret	0
?metaObject@QHexEdit@@UEBAPEBUQMetaObject@@XZ ENDP	; QHexEdit::metaObject
_TEXT	ENDS
END
