; Listing generated by Microsoft (R) Optimizing Compiler Version 19.23.28105.4 

include listing.inc

INCLUDELIB MSVCRT
INCLUDELIB OLDNAMES

EXTRN	__imp_?staticMetaObject@QDialog@@2UQMetaObject@@B:BYTE
CONST	SEGMENT
?qt_meta_stringdata_SearchDialog@@3Uqt_meta_stringdata_SearchDialog_t@@B DD 0ffffffffH ; qt_meta_stringdata_SearchDialog
	DD	0cH
	DD	00H
	ORG $+4
	DQ	0000000000000078H
	DD	0ffffffffH
	DD	011H
	DD	00H
	ORG $+4
	DQ	000000000000006dH
	DD	0ffffffffH
	DD	00H
	DD	00H
	ORG $+4
	DQ	0000000000000067H
	DD	0ffffffffH
	DD	014H
	DD	00H
	ORG $+4
	DQ	0000000000000050H
	DD	0ffffffffH
	DD	017H
	DD	00H
	ORG $+4
	DQ	000000000000004dH
	DB	053H
	DB	065H
	DB	061H
	DB	072H
	DB	063H
	DB	068H
	DB	044H
	DB	069H
	DB	061H
	DB	06cH
	DB	06fH
	DB	067H
	DB	00H
	DB	06fH
	DB	06eH
	DB	05fH
	DB	070H
	DB	062H
	DB	046H
	DB	069H
	DB	06eH
	DB	064H
	DB	05fH
	DB	063H
	DB	06cH
	DB	069H
	DB	063H
	DB	06bH
	DB	065H
	DB	064H
	DB	00H
	DB	00H
	DB	06fH
	DB	06eH
	DB	05fH
	DB	070H
	DB	062H
	DB	052H
	DB	065H
	DB	070H
	DB	06cH
	DB	061H
	DB	063H
	DB	065H
	DB	05fH
	DB	063H
	DB	06cH
	DB	069H
	DB	063H
	DB	06bH
	DB	065H
	DB	064H
	DB	00H
	DB	06fH
	DB	06eH
	DB	05fH
	DB	070H
	DB	062H
	DB	052H
	DB	065H
	DB	070H
	DB	06cH
	DB	061H
	DB	063H
	DB	065H
	DB	041H
	DB	06cH
	DB	06cH
	DB	05fH
	DB	063H
	DB	06cH
	DB	069H
	DB	063H
	DB	06bH
	DB	065H
	DB	064H
	DB	00H
	ORG $+3
	ORG $+8
?qt_meta_data_SearchDialog@@3QBIB DD 08H		; qt_meta_data_SearchDialog
	DD	00H
	DD	00H
	DD	00H
	DD	03H
	DD	0eH
	DD	00H
	DD	00H
	DD	00H
	DD	00H
	DD	00H
	DD	00H
	DD	00H
	DD	00H
	DD	01H
	DD	00H
	DD	01dH
	DD	02H
	DD	08H
	DD	03H
	DD	00H
	DD	01eH
	DD	02H
	DD	08H
	DD	04H
	DD	00H
	DD	01fH
	DD	02H
	DD	08H
	DD	02bH
	DD	02bH
	DD	02bH
	DD	00H
CONST	ENDS
PUBLIC	?tr@QHexEdit@@SA?AVQString@@PEBD0H@Z		; QHexEdit::tr
PUBLIC	?trUtf8@QHexEdit@@SA?AVQString@@PEBD0H@Z	; QHexEdit::trUtf8
PUBLIC	??_FQHexEdit@@QEAAXXZ				; QHexEdit::`default constructor closure'
PUBLIC	?metaObject@SearchDialog@@UEBAPEBUQMetaObject@@XZ ; SearchDialog::metaObject
PUBLIC	?qt_metacast@SearchDialog@@UEAAPEAXPEBD@Z	; SearchDialog::qt_metacast
PUBLIC	?qt_metacall@SearchDialog@@UEAAHW4Call@QMetaObject@@HPEAPEAX@Z ; SearchDialog::qt_metacall
PUBLIC	?qt_static_metacall@SearchDialog@@CAXPEAVQObject@@W4Call@QMetaObject@@HPEAPEAX@Z ; SearchDialog::qt_static_metacall
PUBLIC	?staticMetaObject@SearchDialog@@2UQMetaObject@@B ; SearchDialog::staticMetaObject
EXTRN	__imp_?tr@QMetaObject@@QEBA?AVQString@@PEBD0H@Z:PROC
EXTRN	__imp_?dynamicMetaObject@QObjectData@@QEBAPEAUQMetaObject@@XZ:PROC
EXTRN	__imp_?qt_metacast@QDialog@@UEAAPEAXPEBD@Z:PROC
EXTRN	__imp_?qt_metacall@QDialog@@UEAAHW4Call@QMetaObject@@HPEAPEAX@Z:PROC
EXTRN	??0QHexEdit@@QEAA@PEAVQWidget@@@Z:PROC		; QHexEdit::QHexEdit
EXTRN	?on_pbFind_clicked@SearchDialog@@AEAAXXZ:PROC	; SearchDialog::on_pbFind_clicked
EXTRN	?on_pbReplace_clicked@SearchDialog@@AEAAXXZ:PROC ; SearchDialog::on_pbReplace_clicked
EXTRN	?on_pbReplaceAll_clicked@SearchDialog@@AEAAXXZ:PROC ; SearchDialog::on_pbReplaceAll_clicked
EXTRN	?staticMetaObject@QHexEdit@@2UQMetaObject@@B:BYTE ; QHexEdit::staticMetaObject
;	COMDAT pdata
pdata	SEGMENT
$pdata$?tr@QHexEdit@@SA?AVQString@@PEBD0H@Z DD imagerel $LN7
	DD	imagerel $LN7+45
	DD	imagerel $unwind$?tr@QHexEdit@@SA?AVQString@@PEBD0H@Z
pdata	ENDS
;	COMDAT pdata
pdata	SEGMENT
$pdata$?trUtf8@QHexEdit@@SA?AVQString@@PEBD0H@Z DD imagerel $LN7
	DD	imagerel $LN7+45
	DD	imagerel $unwind$?trUtf8@QHexEdit@@SA?AVQString@@PEBD0H@Z
pdata	ENDS
;	COMDAT pdata
pdata	SEGMENT
$pdata$?qt_metacall@SearchDialog@@UEAAHW4Call@QMetaObject@@HPEAPEAX@Z DD imagerel $LN19
	DD	imagerel $LN19+142
	DD	imagerel $unwind$?qt_metacall@SearchDialog@@UEAAHW4Call@QMetaObject@@HPEAPEAX@Z
pdata	ENDS
CRT$XCU	SEGMENT
??staticMetaObject$initializer$@SearchDialog@@2P6AXXZEA@@3P6AXXZEA DQ FLAT:??__E?staticMetaObject@SearchDialog@@2UQMetaObject@@B@@YAXXZ ; ??staticMetaObject$initializer$@SearchDialog@@2P6AXXZEA@@3P6AXXZEA
CRT$XCU	ENDS
_DATA	SEGMENT
?staticMetaObject@SearchDialog@@2UQMetaObject@@B DB 8 DUP(00H) ; SearchDialog::staticMetaObject
	DQ	FLAT:?qt_meta_stringdata_SearchDialog@@3Uqt_meta_stringdata_SearchDialog_t@@B
	DQ	FLAT:?qt_meta_data_SearchDialog@@3QBIB
	DQ	FLAT:?qt_static_metacall@SearchDialog@@CAXPEAVQObject@@W4Call@QMetaObject@@HPEAPEAX@Z
	DQ	0000000000000000H
	DQ	0000000000000000H
_DATA	ENDS
;	COMDAT xdata
xdata	SEGMENT
$unwind$?qt_metacall@SearchDialog@@UEAAHW4Call@QMetaObject@@HPEAPEAX@Z DD 081501H
	DD	087415H
	DD	076415H
	DD	063415H
	DD	0e0113215H
xdata	ENDS
;	COMDAT xdata
xdata	SEGMENT
$unwind$?trUtf8@QHexEdit@@SA?AVQString@@PEBD0H@Z DD 020601H
	DD	030025206H
xdata	ENDS
;	COMDAT xdata
xdata	SEGMENT
$unwind$?tr@QHexEdit@@SA?AVQString@@PEBD0H@Z DD 020601H
	DD	030025206H
xdata	ENDS
; Function compile flags: /Ogtpy
;	COMDAT ??__E?staticMetaObject@SearchDialog@@2UQMetaObject@@B@@YAXXZ
text$di	SEGMENT
??__E?staticMetaObject@SearchDialog@@2UQMetaObject@@B@@YAXXZ PROC ; `dynamic initializer for 'SearchDialog::staticMetaObject'', COMDAT
; File F:\qt_projects\qhexedit2-master\example\Release\moc_searchdialog.cpp
; Line 88
	mov	rax, QWORD PTR __imp_?staticMetaObject@QDialog@@2UQMetaObject@@B
	mov	QWORD PTR ?staticMetaObject@SearchDialog@@2UQMetaObject@@B, rax
; Line 93
	ret	0
??__E?staticMetaObject@SearchDialog@@2UQMetaObject@@B@@YAXXZ ENDP ; `dynamic initializer for 'SearchDialog::staticMetaObject''
text$di	ENDS
; Function compile flags: /Ogtpy
;	COMDAT ?qt_static_metacall@SearchDialog@@CAXPEAVQObject@@W4Call@QMetaObject@@HPEAPEAX@Z
_TEXT	SEGMENT
_o$ = 8
_c$ = 16
_id$ = 24
_a$ = 32
?qt_static_metacall@SearchDialog@@CAXPEAVQObject@@W4Call@QMetaObject@@HPEAPEAX@Z PROC ; SearchDialog::qt_static_metacall, COMDAT
; File F:\qt_projects\qhexedit2-master\example\Release\moc_searchdialog.cpp
; Line 74
	test	edx, edx
	jne	SHORT $LN8@qt_static_
; Line 77
	test	r8d, r8d
	je	SHORT $LN5@qt_static_
	sub	r8d, 1
	je	SHORT $LN6@qt_static_
	cmp	r8d, 1
	jne	SHORT $LN8@qt_static_
; Line 80
	jmp	?on_pbReplaceAll_clicked@SearchDialog@@AEAAXXZ ; SearchDialog::on_pbReplaceAll_clicked
$LN6@qt_static_:
; Line 79
	jmp	?on_pbReplace_clicked@SearchDialog@@AEAAXXZ ; SearchDialog::on_pbReplace_clicked
$LN5@qt_static_:
; Line 78
	jmp	?on_pbFind_clicked@SearchDialog@@AEAAXXZ ; SearchDialog::on_pbFind_clicked
$LN8@qt_static_:
; Line 85
	ret	0
?qt_static_metacall@SearchDialog@@CAXPEAVQObject@@W4Call@QMetaObject@@HPEAPEAX@Z ENDP ; SearchDialog::qt_static_metacall
_TEXT	ENDS
; Function compile flags: /Ogtpy
;	COMDAT ?qt_metacall@SearchDialog@@UEAAHW4Call@QMetaObject@@HPEAPEAX@Z
_TEXT	SEGMENT
this$ = 48
_c$ = 56
_id$ = 64
_a$ = 72
?qt_metacall@SearchDialog@@UEAAHW4Call@QMetaObject@@HPEAPEAX@Z PROC ; SearchDialog::qt_metacall, COMDAT
; File F:\qt_projects\qhexedit2-master\example\Release\moc_searchdialog.cpp
; Line 111
$LN19:
	mov	QWORD PTR [rsp+8], rbx
	mov	QWORD PTR [rsp+16], rsi
	mov	QWORD PTR [rsp+24], rdi
	push	r14
	sub	rsp, 32					; 00000020H
	mov	r14, r9
	mov	esi, edx
	mov	rdi, rcx
; Line 112
	call	QWORD PTR __imp_?qt_metacall@QDialog@@UEAAHW4Call@QMetaObject@@HPEAPEAX@Z
	mov	ebx, eax
; Line 113
	test	eax, eax
	js	SHORT $LN1@qt_metacal
; Line 115
	test	esi, esi
	jne	SHORT $LN3@qt_metacal
; Line 116
	cmp	eax, 3
	jge	SHORT $LN7@qt_metacal
; Line 77
	mov	ecx, eax
	test	eax, eax
	je	SHORT $LN13@qt_metacal
	sub	ecx, 1
	je	SHORT $LN14@qt_metacal
	cmp	ecx, 1
	jne	SHORT $LN7@qt_metacal
; Line 80
	mov	rcx, rdi
	call	?on_pbReplaceAll_clicked@SearchDialog@@AEAAXXZ ; SearchDialog::on_pbReplaceAll_clicked
	jmp	SHORT $LN7@qt_metacal
$LN14@qt_metacal:
; Line 79
	mov	rcx, rdi
	call	?on_pbReplace_clicked@SearchDialog@@AEAAXXZ ; SearchDialog::on_pbReplace_clicked
	jmp	SHORT $LN7@qt_metacal
$LN13@qt_metacal:
; Line 78
	mov	rcx, rdi
	call	?on_pbFind_clicked@SearchDialog@@AEAAXXZ ; SearchDialog::on_pbFind_clicked
; Line 118
	jmp	SHORT $LN7@qt_metacal
$LN3@qt_metacal:
; Line 119
	cmp	esi, 12
	jne	SHORT $LN6@qt_metacal
; Line 120
	cmp	ebx, 3
	jge	SHORT $LN7@qt_metacal
; Line 121
	mov	rax, QWORD PTR [r14]
	mov	DWORD PTR [rax], -1
$LN7@qt_metacal:
; Line 124
	sub	ebx, 3
$LN6@qt_metacal:
	mov	eax, ebx
$LN1@qt_metacal:
; Line 125
	mov	rbx, QWORD PTR [rsp+48]
	mov	rsi, QWORD PTR [rsp+56]
	mov	rdi, QWORD PTR [rsp+64]
	add	rsp, 32					; 00000020H
	pop	r14
	ret	0
?qt_metacall@SearchDialog@@UEAAHW4Call@QMetaObject@@HPEAPEAX@Z ENDP ; SearchDialog::qt_metacall
_TEXT	ENDS
; Function compile flags: /Ogtpy
;	COMDAT ?qt_metacast@SearchDialog@@UEAAPEAXPEBD@Z
_TEXT	SEGMENT
this$ = 8
_clname$ = 16
?qt_metacast@SearchDialog@@UEAAPEAXPEBD@Z PROC		; SearchDialog::qt_metacast, COMDAT
; File F:\qt_projects\qhexedit2-master\example\Release\moc_searchdialog.cpp
; Line 103
	mov	r9, rdx
	mov	r10, rcx
; Line 104
	test	rdx, rdx
	jne	SHORT $LN2@qt_metacas
	xor	eax, eax
; Line 108
	ret	0
$LN2@qt_metacas:
; Line 105
	lea	r8, OFFSET FLAT:?qt_meta_stringdata_SearchDialog@@3Uqt_meta_stringdata_SearchDialog_t@@B+120
	mov	rax, r9
	sub	r8, r9
	npad	5
$LL5@qt_metacas:
	movzx	edx, BYTE PTR [rax]
	movzx	ecx, BYTE PTR [rax+r8]
	sub	edx, ecx
	jne	SHORT $LN6@qt_metacas
	inc	rax
	test	ecx, ecx
	jne	SHORT $LL5@qt_metacas
$LN6@qt_metacas:
	test	edx, edx
	jne	SHORT $LN3@qt_metacas
; Line 106
	mov	rax, r10
; Line 108
	ret	0
$LN3@qt_metacas:
; Line 107
	mov	rdx, r9
	mov	rcx, r10
	rex_jmp	QWORD PTR __imp_?qt_metacast@QDialog@@UEAAPEAXPEBD@Z
?qt_metacast@SearchDialog@@UEAAPEAXPEBD@Z ENDP		; SearchDialog::qt_metacast
_TEXT	ENDS
; Function compile flags: /Ogtpy
;	COMDAT ?metaObject@SearchDialog@@UEBAPEBUQMetaObject@@XZ
_TEXT	SEGMENT
this$ = 8
?metaObject@SearchDialog@@UEBAPEBUQMetaObject@@XZ PROC	; SearchDialog::metaObject, COMDAT
; File F:\qt_projects\qhexedit2-master\example\Release\moc_searchdialog.cpp
; Line 99
	mov	rcx, QWORD PTR [rcx+8]
	cmp	QWORD PTR [rcx+40], 0
	je	SHORT $LN3@metaObject
	rex_jmp	QWORD PTR __imp_?dynamicMetaObject@QObjectData@@QEBAPEAUQMetaObject@@XZ
$LN3@metaObject:
	lea	rax, OFFSET FLAT:?staticMetaObject@SearchDialog@@2UQMetaObject@@B ; SearchDialog::staticMetaObject
; Line 100
	ret	0
?metaObject@SearchDialog@@UEBAPEBUQMetaObject@@XZ ENDP	; SearchDialog::metaObject
_TEXT	ENDS
; Function compile flags: /Ogtpy
;	COMDAT ??_FQHexEdit@@QEAAXXZ
_TEXT	SEGMENT
this$ = 8
??_FQHexEdit@@QEAAXXZ PROC				; QHexEdit::`default constructor closure', COMDAT
	xor	edx, edx
	jmp	??0QHexEdit@@QEAA@PEAVQWidget@@@Z	; QHexEdit::QHexEdit
??_FQHexEdit@@QEAAXXZ ENDP				; QHexEdit::`default constructor closure'
_TEXT	ENDS
; Function compile flags: /Ogtpy
;	COMDAT ?trUtf8@QHexEdit@@SA?AVQString@@PEBD0H@Z
_TEXT	SEGMENT
__$ReturnUdt$ = 64
s$ = 72
c$ = 80
n$ = 88
?trUtf8@QHexEdit@@SA?AVQString@@PEBD0H@Z PROC		; QHexEdit::trUtf8, COMDAT
; File F:\qt_projects\qhexedit2-master\src\qhexedit.h
; Line 61
$LN7:
	push	rbx
	sub	rsp, 48					; 00000030H
	mov	DWORD PTR [rsp+32], r9d
	mov	rbx, rcx
	mov	r9, r8
	mov	r8, rdx
	mov	rdx, rcx
	lea	rcx, OFFSET FLAT:?staticMetaObject@QHexEdit@@2UQMetaObject@@B ; QHexEdit::staticMetaObject
	call	QWORD PTR __imp_?tr@QMetaObject@@QEBA?AVQString@@PEBD0H@Z
	mov	rax, rbx
	add	rsp, 48					; 00000030H
	pop	rbx
	ret	0
?trUtf8@QHexEdit@@SA?AVQString@@PEBD0H@Z ENDP		; QHexEdit::trUtf8
_TEXT	ENDS
; Function compile flags: /Ogtpy
;	COMDAT ?tr@QHexEdit@@SA?AVQString@@PEBD0H@Z
_TEXT	SEGMENT
__$ReturnUdt$ = 64
s$ = 72
c$ = 80
n$ = 88
?tr@QHexEdit@@SA?AVQString@@PEBD0H@Z PROC		; QHexEdit::tr, COMDAT
; File F:\qt_projects\qhexedit2-master\src\qhexedit.h
; Line 61
$LN7:
	push	rbx
	sub	rsp, 48					; 00000030H
	mov	DWORD PTR [rsp+32], r9d
	mov	rbx, rcx
	mov	r9, r8
	mov	r8, rdx
	mov	rdx, rcx
	lea	rcx, OFFSET FLAT:?staticMetaObject@QHexEdit@@2UQMetaObject@@B ; QHexEdit::staticMetaObject
	call	QWORD PTR __imp_?tr@QMetaObject@@QEBA?AVQString@@PEBD0H@Z
	mov	rax, rbx
	add	rsp, 48					; 00000030H
	pop	rbx
	ret	0
?tr@QHexEdit@@SA?AVQString@@PEBD0H@Z ENDP		; QHexEdit::tr
_TEXT	ENDS
END
